
Dashboard_v1.elf:     file format elf32-avr

Sections:
Idx Name          Size      VMA       LMA       File off  Algn
  0 .text         00002d56  00000000  00000000  00000094  2**1
                  CONTENTS, ALLOC, LOAD, READONLY, CODE
  1 .data         00000050  00800060  00002d56  00002dea  2**0
                  CONTENTS, ALLOC, LOAD, DATA
  2 .bss          00000334  008000b0  008000b0  00002e3a  2**0
                  ALLOC
  3 .stab         00005118  00000000  00000000  00002e3c  2**2
                  CONTENTS, READONLY, DEBUGGING
  4 .stabstr      00002cf6  00000000  00000000  00007f54  2**0
                  CONTENTS, READONLY, DEBUGGING

Disassembly of section .text:

00000000 <__vectors>:
       0:	0c 94 2a 00 	jmp	0x54	; 0x54 <__ctors_end>
       4:	0c 94 47 00 	jmp	0x8e	; 0x8e <__bad_interrupt>
       8:	0c 94 47 00 	jmp	0x8e	; 0x8e <__bad_interrupt>
       c:	0c 94 47 00 	jmp	0x8e	; 0x8e <__bad_interrupt>
      10:	0c 94 47 00 	jmp	0x8e	; 0x8e <__bad_interrupt>
      14:	0c 94 47 00 	jmp	0x8e	; 0x8e <__bad_interrupt>
      18:	0c 94 47 00 	jmp	0x8e	; 0x8e <__bad_interrupt>
      1c:	0c 94 47 00 	jmp	0x8e	; 0x8e <__bad_interrupt>
      20:	0c 94 47 00 	jmp	0x8e	; 0x8e <__bad_interrupt>
      24:	0c 94 47 00 	jmp	0x8e	; 0x8e <__bad_interrupt>
      28:	0c 94 cd 03 	jmp	0x79a	; 0x79a <__vector_10>
      2c:	0c 94 97 03 	jmp	0x72e	; 0x72e <__vector_11>
      30:	0c 94 47 00 	jmp	0x8e	; 0x8e <__bad_interrupt>
      34:	0c 94 41 02 	jmp	0x482	; 0x482 <__vector_13>
      38:	0c 94 47 00 	jmp	0x8e	; 0x8e <__bad_interrupt>
      3c:	0c 94 47 00 	jmp	0x8e	; 0x8e <__bad_interrupt>
      40:	0c 94 47 00 	jmp	0x8e	; 0x8e <__bad_interrupt>
      44:	0c 94 47 00 	jmp	0x8e	; 0x8e <__bad_interrupt>
      48:	0c 94 47 00 	jmp	0x8e	; 0x8e <__bad_interrupt>
      4c:	0c 94 47 00 	jmp	0x8e	; 0x8e <__bad_interrupt>
      50:	0c 94 47 00 	jmp	0x8e	; 0x8e <__bad_interrupt>

00000054 <__ctors_end>:
      54:	11 24       	eor	r1, r1
      56:	1f be       	out	0x3f, r1	; 63
      58:	cf e5       	ldi	r28, 0x5F	; 95
      5a:	d8 e0       	ldi	r29, 0x08	; 8
      5c:	de bf       	out	0x3e, r29	; 62
      5e:	cd bf       	out	0x3d, r28	; 61

00000060 <__do_copy_data>:
      60:	10 e0       	ldi	r17, 0x00	; 0
      62:	a0 e6       	ldi	r26, 0x60	; 96
      64:	b0 e0       	ldi	r27, 0x00	; 0
      66:	e6 e5       	ldi	r30, 0x56	; 86
      68:	fd e2       	ldi	r31, 0x2D	; 45
      6a:	02 c0       	rjmp	.+4      	; 0x70 <.do_copy_data_start>

0000006c <.do_copy_data_loop>:
      6c:	05 90       	lpm	r0, Z+
      6e:	0d 92       	st	X+, r0

00000070 <.do_copy_data_start>:
      70:	a0 3b       	cpi	r26, 0xB0	; 176
      72:	b1 07       	cpc	r27, r17
      74:	d9 f7       	brne	.-10     	; 0x6c <.do_copy_data_loop>

00000076 <__do_clear_bss>:
      76:	13 e0       	ldi	r17, 0x03	; 3
      78:	a0 eb       	ldi	r26, 0xB0	; 176
      7a:	b0 e0       	ldi	r27, 0x00	; 0
      7c:	01 c0       	rjmp	.+2      	; 0x80 <.do_clear_bss_start>

0000007e <.do_clear_bss_loop>:
      7e:	1d 92       	st	X+, r1

00000080 <.do_clear_bss_start>:
      80:	a4 3e       	cpi	r26, 0xE4	; 228
      82:	b1 07       	cpc	r27, r17
      84:	e1 f7       	brne	.-8      	; 0x7e <.do_clear_bss_loop>
      86:	0e 94 53 15 	call	0x2aa6	; 0x2aa6 <main>
      8a:	0c 94 a9 16 	jmp	0x2d52	; 0x2d52 <_exit>

0000008e <__bad_interrupt>:
      8e:	0c 94 00 00 	jmp	0	; 0x0 <__vectors>

00000092 <SwTimer_register_cbf>:
      92:	df 93       	push	r29
      94:	cf 93       	push	r28
      96:	00 d0       	rcall	.+0      	; 0x98 <SwTimer_register_cbf+0x6>
      98:	00 d0       	rcall	.+0      	; 0x9a <SwTimer_register_cbf+0x8>
      9a:	00 d0       	rcall	.+0      	; 0x9c <SwTimer_register_cbf+0xa>
      9c:	cd b7       	in	r28, 0x3d	; 61
      9e:	de b7       	in	r29, 0x3e	; 62
      a0:	9b 83       	std	Y+3, r25	; 0x03
      a2:	8a 83       	std	Y+2, r24	; 0x02
      a4:	6c 83       	std	Y+4, r22	; 0x04
      a6:	5e 83       	std	Y+6, r21	; 0x06
      a8:	4d 83       	std	Y+5, r20	; 0x05
      aa:	81 e0       	ldi	r24, 0x01	; 1
      ac:	89 83       	std	Y+1, r24	; 0x01
      ae:	80 91 b0 00 	lds	r24, 0x00B0
      b2:	90 91 b1 00 	lds	r25, 0x00B1
      b6:	84 36       	cpi	r24, 0x64	; 100
      b8:	91 05       	cpc	r25, r1
      ba:	08 f0       	brcs	.+2      	; 0xbe <SwTimer_register_cbf+0x2c>
      bc:	58 c0       	rjmp	.+176    	; 0x16e <SwTimer_register_cbf+0xdc>
      be:	20 91 b0 00 	lds	r18, 0x00B0
      c2:	30 91 b1 00 	lds	r19, 0x00B1
      c6:	c9 01       	movw	r24, r18
      c8:	88 0f       	add	r24, r24
      ca:	99 1f       	adc	r25, r25
      cc:	88 0f       	add	r24, r24
      ce:	99 1f       	adc	r25, r25
      d0:	88 0f       	add	r24, r24
      d2:	99 1f       	adc	r25, r25
      d4:	82 1b       	sub	r24, r18
      d6:	93 0b       	sbc	r25, r19
      d8:	fc 01       	movw	r30, r24
      da:	eb 54       	subi	r30, 0x4B	; 75
      dc:	ff 4f       	sbci	r31, 0xFF	; 255
      de:	8a 81       	ldd	r24, Y+2	; 0x02
      e0:	9b 81       	ldd	r25, Y+3	; 0x03
      e2:	91 83       	std	Z+1, r25	; 0x01
      e4:	80 83       	st	Z, r24
      e6:	20 91 b0 00 	lds	r18, 0x00B0
      ea:	30 91 b1 00 	lds	r19, 0x00B1
      ee:	c9 01       	movw	r24, r18
      f0:	88 0f       	add	r24, r24
      f2:	99 1f       	adc	r25, r25
      f4:	88 0f       	add	r24, r24
      f6:	99 1f       	adc	r25, r25
      f8:	88 0f       	add	r24, r24
      fa:	99 1f       	adc	r25, r25
      fc:	82 1b       	sub	r24, r18
      fe:	93 0b       	sbc	r25, r19
     100:	fc 01       	movw	r30, r24
     102:	ec 54       	subi	r30, 0x4C	; 76
     104:	ff 4f       	sbci	r31, 0xFF	; 255
     106:	8c 81       	ldd	r24, Y+4	; 0x04
     108:	80 83       	st	Z, r24
     10a:	20 91 b0 00 	lds	r18, 0x00B0
     10e:	30 91 b1 00 	lds	r19, 0x00B1
     112:	c9 01       	movw	r24, r18
     114:	88 0f       	add	r24, r24
     116:	99 1f       	adc	r25, r25
     118:	88 0f       	add	r24, r24
     11a:	99 1f       	adc	r25, r25
     11c:	88 0f       	add	r24, r24
     11e:	99 1f       	adc	r25, r25
     120:	82 1b       	sub	r24, r18
     122:	93 0b       	sbc	r25, r19
     124:	fc 01       	movw	r30, r24
     126:	e9 54       	subi	r30, 0x49	; 73
     128:	ff 4f       	sbci	r31, 0xFF	; 255
     12a:	8a 81       	ldd	r24, Y+2	; 0x02
     12c:	9b 81       	ldd	r25, Y+3	; 0x03
     12e:	91 83       	std	Z+1, r25	; 0x01
     130:	80 83       	st	Z, r24
     132:	20 91 b0 00 	lds	r18, 0x00B0
     136:	30 91 b1 00 	lds	r19, 0x00B1
     13a:	c9 01       	movw	r24, r18
     13c:	88 0f       	add	r24, r24
     13e:	99 1f       	adc	r25, r25
     140:	88 0f       	add	r24, r24
     142:	99 1f       	adc	r25, r25
     144:	88 0f       	add	r24, r24
     146:	99 1f       	adc	r25, r25
     148:	82 1b       	sub	r24, r18
     14a:	93 0b       	sbc	r25, r19
     14c:	fc 01       	movw	r30, r24
     14e:	ee 54       	subi	r30, 0x4E	; 78
     150:	ff 4f       	sbci	r31, 0xFF	; 255
     152:	8d 81       	ldd	r24, Y+5	; 0x05
     154:	9e 81       	ldd	r25, Y+6	; 0x06
     156:	91 83       	std	Z+1, r25	; 0x01
     158:	80 83       	st	Z, r24
     15a:	80 91 b0 00 	lds	r24, 0x00B0
     15e:	90 91 b1 00 	lds	r25, 0x00B1
     162:	01 96       	adiw	r24, 0x01	; 1
     164:	90 93 b1 00 	sts	0x00B1, r25
     168:	80 93 b0 00 	sts	0x00B0, r24
     16c:	19 82       	std	Y+1, r1	; 0x01
     16e:	89 81       	ldd	r24, Y+1	; 0x01
     170:	26 96       	adiw	r28, 0x06	; 6
     172:	0f b6       	in	r0, 0x3f	; 63
     174:	f8 94       	cli
     176:	de bf       	out	0x3e, r29	; 62
     178:	0f be       	out	0x3f, r0	; 63
     17a:	cd bf       	out	0x3d, r28	; 61
     17c:	cf 91       	pop	r28
     17e:	df 91       	pop	r29
     180:	08 95       	ret

00000182 <SwTimer_Unregister>:
	}
	return state;
}

static void SwTimer_Unregister(u32 idx)
{
     182:	df 93       	push	r29
     184:	cf 93       	push	r28
     186:	cd b7       	in	r28, 0x3d	; 61
     188:	de b7       	in	r29, 0x3e	; 62
     18a:	27 97       	sbiw	r28, 0x07	; 7
     18c:	0f b6       	in	r0, 0x3f	; 63
     18e:	f8 94       	cli
     190:	de bf       	out	0x3e, r29	; 62
     192:	0f be       	out	0x3f, r0	; 63
     194:	cd bf       	out	0x3d, r28	; 61
     196:	9a 83       	std	Y+2, r25	; 0x02
     198:	89 83       	std	Y+1, r24	; 0x01
     19a:	3f c0       	rjmp	.+126    	; 0x21a <SwTimer_Unregister+0x98>
	for(;idx < NextFree-1;idx++){
		cbfList[idx] = cbfList[idx + 1];
     19c:	29 81       	ldd	r18, Y+1	; 0x01
     19e:	3a 81       	ldd	r19, Y+2	; 0x02
     1a0:	89 81       	ldd	r24, Y+1	; 0x01
     1a2:	9a 81       	ldd	r25, Y+2	; 0x02
     1a4:	ac 01       	movw	r20, r24
     1a6:	4f 5f       	subi	r20, 0xFF	; 255
     1a8:	5f 4f       	sbci	r21, 0xFF	; 255
     1aa:	c9 01       	movw	r24, r18
     1ac:	88 0f       	add	r24, r24
     1ae:	99 1f       	adc	r25, r25
     1b0:	88 0f       	add	r24, r24
     1b2:	99 1f       	adc	r25, r25
     1b4:	88 0f       	add	r24, r24
     1b6:	99 1f       	adc	r25, r25
     1b8:	82 1b       	sub	r24, r18
     1ba:	93 0b       	sbc	r25, r19
     1bc:	9c 01       	movw	r18, r24
     1be:	2e 54       	subi	r18, 0x4E	; 78
     1c0:	3f 4f       	sbci	r19, 0xFF	; 255
     1c2:	ca 01       	movw	r24, r20
     1c4:	88 0f       	add	r24, r24
     1c6:	99 1f       	adc	r25, r25
     1c8:	88 0f       	add	r24, r24
     1ca:	99 1f       	adc	r25, r25
     1cc:	88 0f       	add	r24, r24
     1ce:	99 1f       	adc	r25, r25
     1d0:	84 1b       	sub	r24, r20
     1d2:	95 0b       	sbc	r25, r21
     1d4:	8e 54       	subi	r24, 0x4E	; 78
     1d6:	9f 4f       	sbci	r25, 0xFF	; 255
     1d8:	3c 83       	std	Y+4, r19	; 0x04
     1da:	2b 83       	std	Y+3, r18	; 0x03
     1dc:	9e 83       	std	Y+6, r25	; 0x06
     1de:	8d 83       	std	Y+5, r24	; 0x05
     1e0:	87 e0       	ldi	r24, 0x07	; 7
     1e2:	8f 83       	std	Y+7, r24	; 0x07
     1e4:	ed 81       	ldd	r30, Y+5	; 0x05
     1e6:	fe 81       	ldd	r31, Y+6	; 0x06
     1e8:	00 80       	ld	r0, Z
     1ea:	8d 81       	ldd	r24, Y+5	; 0x05
     1ec:	9e 81       	ldd	r25, Y+6	; 0x06
     1ee:	01 96       	adiw	r24, 0x01	; 1
     1f0:	9e 83       	std	Y+6, r25	; 0x06
     1f2:	8d 83       	std	Y+5, r24	; 0x05
     1f4:	eb 81       	ldd	r30, Y+3	; 0x03
     1f6:	fc 81       	ldd	r31, Y+4	; 0x04
     1f8:	00 82       	st	Z, r0
     1fa:	8b 81       	ldd	r24, Y+3	; 0x03
     1fc:	9c 81       	ldd	r25, Y+4	; 0x04
     1fe:	01 96       	adiw	r24, 0x01	; 1
     200:	9c 83       	std	Y+4, r25	; 0x04
     202:	8b 83       	std	Y+3, r24	; 0x03
     204:	9f 81       	ldd	r25, Y+7	; 0x07
     206:	91 50       	subi	r25, 0x01	; 1
     208:	9f 83       	std	Y+7, r25	; 0x07
     20a:	ef 81       	ldd	r30, Y+7	; 0x07
     20c:	ee 23       	and	r30, r30
     20e:	51 f7       	brne	.-44     	; 0x1e4 <SwTimer_Unregister+0x62>
	return state;
}

static void SwTimer_Unregister(u32 idx)
{
	for(;idx < NextFree-1;idx++){
     210:	89 81       	ldd	r24, Y+1	; 0x01
     212:	9a 81       	ldd	r25, Y+2	; 0x02
     214:	01 96       	adiw	r24, 0x01	; 1
     216:	9a 83       	std	Y+2, r25	; 0x02
     218:	89 83       	std	Y+1, r24	; 0x01
     21a:	80 91 b0 00 	lds	r24, 0x00B0
     21e:	90 91 b1 00 	lds	r25, 0x00B1
     222:	9c 01       	movw	r18, r24
     224:	21 50       	subi	r18, 0x01	; 1
     226:	30 40       	sbci	r19, 0x00	; 0
     228:	89 81       	ldd	r24, Y+1	; 0x01
     22a:	9a 81       	ldd	r25, Y+2	; 0x02
     22c:	82 17       	cp	r24, r18
     22e:	93 07       	cpc	r25, r19
     230:	08 f4       	brcc	.+2      	; 0x234 <SwTimer_Unregister+0xb2>
     232:	b4 cf       	rjmp	.-152    	; 0x19c <SwTimer_Unregister+0x1a>
		cbfList[idx] = cbfList[idx + 1];
	}
	NextFree--;
     234:	80 91 b0 00 	lds	r24, 0x00B0
     238:	90 91 b1 00 	lds	r25, 0x00B1
     23c:	01 97       	sbiw	r24, 0x01	; 1
     23e:	90 93 b1 00 	sts	0x00B1, r25
     242:	80 93 b0 00 	sts	0x00B0, r24
}
     246:	27 96       	adiw	r28, 0x07	; 7
     248:	0f b6       	in	r0, 0x3f	; 63
     24a:	f8 94       	cli
     24c:	de bf       	out	0x3e, r29	; 62
     24e:	0f be       	out	0x3f, r0	; 63
     250:	cd bf       	out	0x3d, r28	; 61
     252:	cf 91       	pop	r28
     254:	df 91       	pop	r29
     256:	08 95       	ret

00000258 <Scheduler>:

static void Scheduler(void)
{
     258:	df 93       	push	r29
     25a:	cf 93       	push	r28
     25c:	00 d0       	rcall	.+0      	; 0x25e <Scheduler+0x6>
     25e:	cd b7       	in	r28, 0x3d	; 61
     260:	de b7       	in	r29, 0x3e	; 62
	u32 idx;
	for(idx=0;idx<NextFree;idx++)
     262:	1a 82       	std	Y+2, r1	; 0x02
     264:	19 82       	std	Y+1, r1	; 0x01
     266:	8a c0       	rjmp	.+276    	; 0x37c <Scheduler+0x124>
	{
		if(cbfList[idx].timerMs == 0)
     268:	29 81       	ldd	r18, Y+1	; 0x01
     26a:	3a 81       	ldd	r19, Y+2	; 0x02
     26c:	c9 01       	movw	r24, r18
     26e:	88 0f       	add	r24, r24
     270:	99 1f       	adc	r25, r25
     272:	88 0f       	add	r24, r24
     274:	99 1f       	adc	r25, r25
     276:	88 0f       	add	r24, r24
     278:	99 1f       	adc	r25, r25
     27a:	82 1b       	sub	r24, r18
     27c:	93 0b       	sbc	r25, r19
     27e:	fc 01       	movw	r30, r24
     280:	eb 54       	subi	r30, 0x4B	; 75
     282:	ff 4f       	sbci	r31, 0xFF	; 255
     284:	80 81       	ld	r24, Z
     286:	91 81       	ldd	r25, Z+1	; 0x01
     288:	00 97       	sbiw	r24, 0x00	; 0
     28a:	09 f0       	breq	.+2      	; 0x28e <Scheduler+0x36>
     28c:	51 c0       	rjmp	.+162    	; 0x330 <Scheduler+0xd8>
		{
			(cbfList[idx].func)();
     28e:	29 81       	ldd	r18, Y+1	; 0x01
     290:	3a 81       	ldd	r19, Y+2	; 0x02
     292:	c9 01       	movw	r24, r18
     294:	88 0f       	add	r24, r24
     296:	99 1f       	adc	r25, r25
     298:	88 0f       	add	r24, r24
     29a:	99 1f       	adc	r25, r25
     29c:	88 0f       	add	r24, r24
     29e:	99 1f       	adc	r25, r25
     2a0:	82 1b       	sub	r24, r18
     2a2:	93 0b       	sbc	r25, r19
     2a4:	fc 01       	movw	r30, r24
     2a6:	ee 54       	subi	r30, 0x4E	; 78
     2a8:	ff 4f       	sbci	r31, 0xFF	; 255
     2aa:	01 90       	ld	r0, Z+
     2ac:	f0 81       	ld	r31, Z
     2ae:	e0 2d       	mov	r30, r0
     2b0:	09 95       	icall
			if(cbfList[idx].mode == SwTimerMode_once)
     2b2:	29 81       	ldd	r18, Y+1	; 0x01
     2b4:	3a 81       	ldd	r19, Y+2	; 0x02
     2b6:	c9 01       	movw	r24, r18
     2b8:	88 0f       	add	r24, r24
     2ba:	99 1f       	adc	r25, r25
     2bc:	88 0f       	add	r24, r24
     2be:	99 1f       	adc	r25, r25
     2c0:	88 0f       	add	r24, r24
     2c2:	99 1f       	adc	r25, r25
     2c4:	82 1b       	sub	r24, r18
     2c6:	93 0b       	sbc	r25, r19
     2c8:	fc 01       	movw	r30, r24
     2ca:	ec 54       	subi	r30, 0x4C	; 76
     2cc:	ff 4f       	sbci	r31, 0xFF	; 255
     2ce:	80 81       	ld	r24, Z
     2d0:	81 30       	cpi	r24, 0x01	; 1
     2d2:	71 f4       	brne	.+28     	; 0x2f0 <Scheduler+0x98>
			{
				/* if the function is called once, remove it*/
				SwTimer_Unregister(idx);
     2d4:	89 81       	ldd	r24, Y+1	; 0x01
     2d6:	9a 81       	ldd	r25, Y+2	; 0x02
     2d8:	0e 94 c1 00 	call	0x182	; 0x182 <SwTimer_Unregister>
				if(idx != 0) idx--;
     2dc:	89 81       	ldd	r24, Y+1	; 0x01
     2de:	9a 81       	ldd	r25, Y+2	; 0x02
     2e0:	00 97       	sbiw	r24, 0x00	; 0
     2e2:	31 f1       	breq	.+76     	; 0x330 <Scheduler+0xd8>
     2e4:	89 81       	ldd	r24, Y+1	; 0x01
     2e6:	9a 81       	ldd	r25, Y+2	; 0x02
     2e8:	01 97       	sbiw	r24, 0x01	; 1
     2ea:	9a 83       	std	Y+2, r25	; 0x02
     2ec:	89 83       	std	Y+1, r24	; 0x01
     2ee:	20 c0       	rjmp	.+64     	; 0x330 <Scheduler+0xd8>
			}
			else{
				cbfList[idx].timerMs=cbfList[idx].reload;
     2f0:	49 81       	ldd	r20, Y+1	; 0x01
     2f2:	5a 81       	ldd	r21, Y+2	; 0x02
     2f4:	29 81       	ldd	r18, Y+1	; 0x01
     2f6:	3a 81       	ldd	r19, Y+2	; 0x02
     2f8:	c9 01       	movw	r24, r18
     2fa:	88 0f       	add	r24, r24
     2fc:	99 1f       	adc	r25, r25
     2fe:	88 0f       	add	r24, r24
     300:	99 1f       	adc	r25, r25
     302:	88 0f       	add	r24, r24
     304:	99 1f       	adc	r25, r25
     306:	82 1b       	sub	r24, r18
     308:	93 0b       	sbc	r25, r19
     30a:	fc 01       	movw	r30, r24
     30c:	e9 54       	subi	r30, 0x49	; 73
     30e:	ff 4f       	sbci	r31, 0xFF	; 255
     310:	20 81       	ld	r18, Z
     312:	31 81       	ldd	r19, Z+1	; 0x01
     314:	ca 01       	movw	r24, r20
     316:	88 0f       	add	r24, r24
     318:	99 1f       	adc	r25, r25
     31a:	88 0f       	add	r24, r24
     31c:	99 1f       	adc	r25, r25
     31e:	88 0f       	add	r24, r24
     320:	99 1f       	adc	r25, r25
     322:	84 1b       	sub	r24, r20
     324:	95 0b       	sbc	r25, r21
     326:	fc 01       	movw	r30, r24
     328:	eb 54       	subi	r30, 0x4B	; 75
     32a:	ff 4f       	sbci	r31, 0xFF	; 255
     32c:	31 83       	std	Z+1, r19	; 0x01
     32e:	20 83       	st	Z, r18
			}
		}
		cbfList[idx].timerMs--;
     330:	29 81       	ldd	r18, Y+1	; 0x01
     332:	3a 81       	ldd	r19, Y+2	; 0x02
     334:	c9 01       	movw	r24, r18
     336:	88 0f       	add	r24, r24
     338:	99 1f       	adc	r25, r25
     33a:	88 0f       	add	r24, r24
     33c:	99 1f       	adc	r25, r25
     33e:	88 0f       	add	r24, r24
     340:	99 1f       	adc	r25, r25
     342:	82 1b       	sub	r24, r18
     344:	93 0b       	sbc	r25, r19
     346:	fc 01       	movw	r30, r24
     348:	eb 54       	subi	r30, 0x4B	; 75
     34a:	ff 4f       	sbci	r31, 0xFF	; 255
     34c:	80 81       	ld	r24, Z
     34e:	91 81       	ldd	r25, Z+1	; 0x01
     350:	ac 01       	movw	r20, r24
     352:	41 50       	subi	r20, 0x01	; 1
     354:	50 40       	sbci	r21, 0x00	; 0
     356:	c9 01       	movw	r24, r18
     358:	88 0f       	add	r24, r24
     35a:	99 1f       	adc	r25, r25
     35c:	88 0f       	add	r24, r24
     35e:	99 1f       	adc	r25, r25
     360:	88 0f       	add	r24, r24
     362:	99 1f       	adc	r25, r25
     364:	82 1b       	sub	r24, r18
     366:	93 0b       	sbc	r25, r19
     368:	fc 01       	movw	r30, r24
     36a:	eb 54       	subi	r30, 0x4B	; 75
     36c:	ff 4f       	sbci	r31, 0xFF	; 255
     36e:	51 83       	std	Z+1, r21	; 0x01
     370:	40 83       	st	Z, r20
}

static void Scheduler(void)
{
	u32 idx;
	for(idx=0;idx<NextFree;idx++)
     372:	89 81       	ldd	r24, Y+1	; 0x01
     374:	9a 81       	ldd	r25, Y+2	; 0x02
     376:	01 96       	adiw	r24, 0x01	; 1
     378:	9a 83       	std	Y+2, r25	; 0x02
     37a:	89 83       	std	Y+1, r24	; 0x01
     37c:	20 91 b0 00 	lds	r18, 0x00B0
     380:	30 91 b1 00 	lds	r19, 0x00B1
     384:	89 81       	ldd	r24, Y+1	; 0x01
     386:	9a 81       	ldd	r25, Y+2	; 0x02
     388:	82 17       	cp	r24, r18
     38a:	93 07       	cpc	r25, r19
     38c:	08 f4       	brcc	.+2      	; 0x390 <Scheduler+0x138>
     38e:	6c cf       	rjmp	.-296    	; 0x268 <Scheduler+0x10>
			}
		}
		cbfList[idx].timerMs--;
	}

}
     390:	0f 90       	pop	r0
     392:	0f 90       	pop	r0
     394:	cf 91       	pop	r28
     396:	df 91       	pop	r29
     398:	08 95       	ret

0000039a <SwTimer_init>:
void SwTimer_init(void)
{
     39a:	df 93       	push	r29
     39c:	cf 93       	push	r28
     39e:	cd b7       	in	r28, 0x3d	; 61
     3a0:	de b7       	in	r29, 0x3e	; 62
	TIMER_vidInit();
     3a2:	0e 94 81 02 	call	0x502	; 0x502 <TIMER_vidInit>
	TIMER_vidLoadTimer(248);
     3a6:	88 ef       	ldi	r24, 0xF8	; 248
     3a8:	0e 94 4e 03 	call	0x69c	; 0x69c <TIMER_vidLoadTimer>
	TIMER_u8SetCallBack_OVF( Scheduler );
     3ac:	8c e2       	ldi	r24, 0x2C	; 44
     3ae:	91 e0       	ldi	r25, 0x01	; 1
     3b0:	0e 94 5d 03 	call	0x6ba	; 0x6ba <TIMER_u8SetCallBack_OVF>
	TIMER_u8EnableNotification();
     3b4:	0e 94 97 02 	call	0x52e	; 0x52e <TIMER_u8EnableNotification>
	TIMER_u8StartTimer(ClkPre_1024);
     3b8:	85 e0       	ldi	r24, 0x05	; 5
     3ba:	0e 94 d3 02 	call	0x5a6	; 0x5a6 <TIMER_u8StartTimer>
}
     3be:	cf 91       	pop	r28
     3c0:	df 91       	pop	r29
     3c2:	08 95       	ret

000003c4 <UART_u8Init>:
 * Description: -> Initialize Uart by setting configurations of each register.
 * 				-> Enabling Interrupts in case Interrupt mode is used
 * Input:  void
 * Output: void
 ******************************************************/
u8 UART_u8Init(void){
     3c4:	df 93       	push	r29
     3c6:	cf 93       	push	r28
     3c8:	0f 92       	push	r0
     3ca:	cd b7       	in	r28, 0x3d	; 61
     3cc:	de b7       	in	r29, 0x3e	; 62
	u8 Loc_u8UCSRCRegValue = 0;
     3ce:	19 82       	std	Y+1, r1	; 0x01

	/* before enabling the Rx and Tx*/
	_UCSRA.Bits.Bit1 = 0; //U2X
     3d0:	eb e2       	ldi	r30, 0x2B	; 43
     3d2:	f0 e0       	ldi	r31, 0x00	; 0
     3d4:	80 81       	ld	r24, Z
     3d6:	8d 7f       	andi	r24, 0xFD	; 253
     3d8:	80 83       	st	Z, r24
	_UCSRA.Bits.Bit1 = 0; //MPCM
     3da:	eb e2       	ldi	r30, 0x2B	; 43
     3dc:	f0 e0       	ldi	r31, 0x00	; 0
     3de:	80 81       	ld	r24, Z
     3e0:	8d 7f       	andi	r24, 0xFD	; 253
     3e2:	80 83       	st	Z, r24

	/* enabling the Rx and Tx*/
	_UCSRB.Bits.Bit4=1; //RxEN
     3e4:	ea e2       	ldi	r30, 0x2A	; 42
     3e6:	f0 e0       	ldi	r31, 0x00	; 0
     3e8:	80 81       	ld	r24, Z
     3ea:	80 61       	ori	r24, 0x10	; 16
     3ec:	80 83       	st	Z, r24
	_UCSRB.Bits.Bit3=1; //TxEN
     3ee:	ea e2       	ldi	r30, 0x2A	; 42
     3f0:	f0 e0       	ldi	r31, 0x00	; 0
     3f2:	80 81       	ld	r24, Z
     3f4:	88 60       	ori	r24, 0x08	; 8
     3f6:	80 83       	st	Z, r24

	/* setting character size */
	_UCSRB.Bits.Bit2 = 0; //UCSZ2 ,, data size 8 bits
     3f8:	ea e2       	ldi	r30, 0x2A	; 42
     3fa:	f0 e0       	ldi	r31, 0x00	; 0
     3fc:	80 81       	ld	r24, Z
     3fe:	8b 7f       	andi	r24, 0xFB	; 251
     400:	80 83       	st	Z, r24

	SET_BIT(Loc_u8UCSRCRegValue,7);
     402:	89 81       	ldd	r24, Y+1	; 0x01
     404:	80 68       	ori	r24, 0x80	; 128
     406:	89 83       	std	Y+1, r24	; 0x01
	CLR_BIT(Loc_u8UCSRCRegValue,6);
     408:	89 81       	ldd	r24, Y+1	; 0x01
     40a:	8f 7b       	andi	r24, 0xBF	; 191
     40c:	89 83       	std	Y+1, r24	; 0x01
	CLR_BIT(Loc_u8UCSRCRegValue,5);
     40e:	89 81       	ldd	r24, Y+1	; 0x01
     410:	8f 7d       	andi	r24, 0xDF	; 223
     412:	89 83       	std	Y+1, r24	; 0x01
	CLR_BIT(Loc_u8UCSRCRegValue,4);
     414:	89 81       	ldd	r24, Y+1	; 0x01
     416:	8f 7e       	andi	r24, 0xEF	; 239
     418:	89 83       	std	Y+1, r24	; 0x01

	CLR_BIT(Loc_u8UCSRCRegValue,3);
     41a:	89 81       	ldd	r24, Y+1	; 0x01
     41c:	87 7f       	andi	r24, 0xF7	; 247
     41e:	89 83       	std	Y+1, r24	; 0x01
	SET_BIT(Loc_u8UCSRCRegValue,2);
     420:	89 81       	ldd	r24, Y+1	; 0x01
     422:	84 60       	ori	r24, 0x04	; 4
     424:	89 83       	std	Y+1, r24	; 0x01
	SET_BIT(Loc_u8UCSRCRegValue,1);
     426:	89 81       	ldd	r24, Y+1	; 0x01
     428:	82 60       	ori	r24, 0x02	; 2
     42a:	89 83       	std	Y+1, r24	; 0x01
	CLR_BIT(Loc_u8UCSRCRegValue,0);
     42c:	89 81       	ldd	r24, Y+1	; 0x01
     42e:	8e 7f       	andi	r24, 0xFE	; 254
     430:	89 83       	std	Y+1, r24	; 0x01
	_UCSRC.u8RegData = Loc_u8UCSRCRegValue;
     432:	e0 e4       	ldi	r30, 0x40	; 64
     434:	f0 e0       	ldi	r31, 0x00	; 0
     436:	89 81       	ldd	r24, Y+1	; 0x01
     438:	80 83       	st	Z, r24

	_UBRRH.u8RegData = 0; // to write in UBRRH not in UCSRC, we need to put MSB = 0
     43a:	e0 e4       	ldi	r30, 0x40	; 64
     43c:	f0 e0       	ldi	r31, 0x00	; 0
     43e:	10 82       	st	Z, r1
	_UBRRL.u8RegData = 51;
     440:	e9 e2       	ldi	r30, 0x29	; 41
     442:	f0 e0       	ldi	r31, 0x00	; 0
     444:	83 e3       	ldi	r24, 0x33	; 51
     446:	80 83       	st	Z, r24

#if UART_u8RxMODE == UART_u8INTERRUPT_BASED
	_UCSRB.Bits.Bit7 = 1; //enable Rx interrupt (peripheral)
     448:	ea e2       	ldi	r30, 0x2A	; 42
     44a:	f0 e0       	ldi	r31, 0x00	; 0
     44c:	80 81       	ld	r24, Z
     44e:	80 68       	ori	r24, 0x80	; 128
     450:	80 83       	st	Z, r24
#endif
	return RT_SUCCESS;
     452:	80 e0       	ldi	r24, 0x00	; 0
}
     454:	0f 90       	pop	r0
     456:	cf 91       	pop	r28
     458:	df 91       	pop	r29
     45a:	08 95       	ret

0000045c <UART_u8ReceiveData>:
 * Function name: Uart_u8ReceiveData
 * Description: this function is set to receive 1 byte of data over Uart.
 * Input: void
 * Output: u16 -> data received.
 ******************************************************/
u8  UART_u8ReceiveData(u8 * Copy_pu8RecData){
     45c:	df 93       	push	r29
     45e:	cf 93       	push	r28
     460:	00 d0       	rcall	.+0      	; 0x462 <UART_u8ReceiveData+0x6>
     462:	cd b7       	in	r28, 0x3d	; 61
     464:	de b7       	in	r29, 0x3e	; 62
     466:	9a 83       	std	Y+2, r25	; 0x02
     468:	89 83       	std	Y+1, r24	; 0x01
#if UART_u8RxMODE == UART_u8POLLING_BASED
	while(_UCSRA.Bits.Bit7 == 0);//RXE polling check
#endif
	//you dont need to check by #if if you're interrupt based
	*Copy_pu8RecData = _UDR.u8RegData;
     46a:	ec e2       	ldi	r30, 0x2C	; 44
     46c:	f0 e0       	ldi	r31, 0x00	; 0
     46e:	80 81       	ld	r24, Z
     470:	e9 81       	ldd	r30, Y+1	; 0x01
     472:	fa 81       	ldd	r31, Y+2	; 0x02
     474:	80 83       	st	Z, r24
	return RT_SUCCESS;
     476:	80 e0       	ldi	r24, 0x00	; 0
}
     478:	0f 90       	pop	r0
     47a:	0f 90       	pop	r0
     47c:	cf 91       	pop	r28
     47e:	df 91       	pop	r29
     480:	08 95       	ret

00000482 <__vector_13>:



ISR(USART_RXC_vect){
     482:	1f 92       	push	r1
     484:	0f 92       	push	r0
     486:	0f b6       	in	r0, 0x3f	; 63
     488:	0f 92       	push	r0
     48a:	11 24       	eor	r1, r1
     48c:	2f 93       	push	r18
     48e:	3f 93       	push	r19
     490:	4f 93       	push	r20
     492:	5f 93       	push	r21
     494:	6f 93       	push	r22
     496:	7f 93       	push	r23
     498:	8f 93       	push	r24
     49a:	9f 93       	push	r25
     49c:	af 93       	push	r26
     49e:	bf 93       	push	r27
     4a0:	ef 93       	push	r30
     4a2:	ff 93       	push	r31
     4a4:	df 93       	push	r29
     4a6:	cf 93       	push	r28
     4a8:	cd b7       	in	r28, 0x3d	; 61
     4aa:	de b7       	in	r29, 0x3e	; 62
	Module_pfNotify();
     4ac:	e0 91 e0 03 	lds	r30, 0x03E0
     4b0:	f0 91 e1 03 	lds	r31, 0x03E1
     4b4:	09 95       	icall
}
     4b6:	cf 91       	pop	r28
     4b8:	df 91       	pop	r29
     4ba:	ff 91       	pop	r31
     4bc:	ef 91       	pop	r30
     4be:	bf 91       	pop	r27
     4c0:	af 91       	pop	r26
     4c2:	9f 91       	pop	r25
     4c4:	8f 91       	pop	r24
     4c6:	7f 91       	pop	r23
     4c8:	6f 91       	pop	r22
     4ca:	5f 91       	pop	r21
     4cc:	4f 91       	pop	r20
     4ce:	3f 91       	pop	r19
     4d0:	2f 91       	pop	r18
     4d2:	0f 90       	pop	r0
     4d4:	0f be       	out	0x3f, r0	; 63
     4d6:	0f 90       	pop	r0
     4d8:	1f 90       	pop	r1
     4da:	18 95       	reti

000004dc <UART_vidSetCallBack>:

u8 UART_vidSetCallBack(App_pfNotify pointerToFunction){
     4dc:	df 93       	push	r29
     4de:	cf 93       	push	r28
     4e0:	00 d0       	rcall	.+0      	; 0x4e2 <UART_vidSetCallBack+0x6>
     4e2:	cd b7       	in	r28, 0x3d	; 61
     4e4:	de b7       	in	r29, 0x3e	; 62
     4e6:	9a 83       	std	Y+2, r25	; 0x02
     4e8:	89 83       	std	Y+1, r24	; 0x01
	Module_pfNotify  = pointerToFunction;
     4ea:	89 81       	ldd	r24, Y+1	; 0x01
     4ec:	9a 81       	ldd	r25, Y+2	; 0x02
     4ee:	90 93 e1 03 	sts	0x03E1, r25
     4f2:	80 93 e0 03 	sts	0x03E0, r24
	return RT_SUCCESS;
     4f6:	80 e0       	ldi	r24, 0x00	; 0
}
     4f8:	0f 90       	pop	r0
     4fa:	0f 90       	pop	r0
     4fc:	cf 91       	pop	r28
     4fe:	df 91       	pop	r29
     500:	08 95       	ret

00000502 <TIMER_vidInit>:
void ( * Cbf_ptr_COMP) (void) = {NULL}; //initialize the pointers to Null


/****************************************************************************************/
u8 TIMER_vidInit(void)
{
     502:	df 93       	push	r29
     504:	cf 93       	push	r28
     506:	cd b7       	in	r28, 0x3d	; 61
     508:	de b7       	in	r29, 0x3e	; 62
	//Bit 6, 3 – WGM01:0: Waveform Generation Mode in TCCR0
	_TCCR0 &= CLEAR_MODE_BITS;
     50a:	a3 e5       	ldi	r26, 0x53	; 83
     50c:	b0 e0       	ldi	r27, 0x00	; 0
     50e:	e3 e5       	ldi	r30, 0x53	; 83
     510:	f0 e0       	ldi	r31, 0x00	; 0
     512:	80 81       	ld	r24, Z
     514:	87 78       	andi	r24, 0x87	; 135
     516:	8c 93       	st	X, r24
#if 	TIMER_MODE == TIMER_NORMAL_MODE
	_TCCR0 &= (BIT3_CLEAR & BIT6_CLEAR);
     518:	a3 e5       	ldi	r26, 0x53	; 83
     51a:	b0 e0       	ldi	r27, 0x00	; 0
     51c:	e3 e5       	ldi	r30, 0x53	; 83
     51e:	f0 e0       	ldi	r31, 0x00	; 0
     520:	80 81       	ld	r24, Z
     522:	87 7b       	andi	r24, 0xB7	; 183
     524:	8c 93       	st	X, r24

#else
#warning "Warning: Wrong Mode Configuration "
#endif

	return RT_SUCCESS;
     526:	80 e0       	ldi	r24, 0x00	; 0
}
     528:	cf 91       	pop	r28
     52a:	df 91       	pop	r29
     52c:	08 95       	ret

0000052e <TIMER_u8EnableNotification>:
/****************************************************************************************/
u8 TIMER_u8EnableNotification(void)
{
     52e:	df 93       	push	r29
     530:	cf 93       	push	r28
     532:	cd b7       	in	r28, 0x3d	; 61
     534:	de b7       	in	r29, 0x3e	; 62
	/*
	 * Overflow Interrupt Enable BIT0
	 */
	_TIMSK 	|= BIT0;
     536:	a9 e5       	ldi	r26, 0x59	; 89
     538:	b0 e0       	ldi	r27, 0x00	; 0
     53a:	e9 e5       	ldi	r30, 0x59	; 89
     53c:	f0 e0       	ldi	r31, 0x00	; 0
     53e:	80 81       	ld	r24, Z
     540:	81 60       	ori	r24, 0x01	; 1
     542:	8c 93       	st	X, r24
	return RT_SUCCESS;
     544:	80 e0       	ldi	r24, 0x00	; 0
}
     546:	cf 91       	pop	r28
     548:	df 91       	pop	r29
     54a:	08 95       	ret

0000054c <TIMER_u8EnableCOMP_Int>:
/****************************************************************************************/
u8 TIMER_u8EnableCOMP_Int(void)
{
     54c:	df 93       	push	r29
     54e:	cf 93       	push	r28
     550:	cd b7       	in	r28, 0x3d	; 61
     552:	de b7       	in	r29, 0x3e	; 62
	/*
	 * Output Compare Match Interrupt Disable BIT1
	 */
	_TIMSK |= BIT1;
     554:	a9 e5       	ldi	r26, 0x59	; 89
     556:	b0 e0       	ldi	r27, 0x00	; 0
     558:	e9 e5       	ldi	r30, 0x59	; 89
     55a:	f0 e0       	ldi	r31, 0x00	; 0
     55c:	80 81       	ld	r24, Z
     55e:	82 60       	ori	r24, 0x02	; 2
     560:	8c 93       	st	X, r24
	return RT_SUCCESS;
     562:	80 e0       	ldi	r24, 0x00	; 0
}
     564:	cf 91       	pop	r28
     566:	df 91       	pop	r29
     568:	08 95       	ret

0000056a <TIMER_u8DisableNotification>:
/****************************************************************************************/
u8 TIMER_u8DisableNotification(void)
{
     56a:	df 93       	push	r29
     56c:	cf 93       	push	r28
     56e:	cd b7       	in	r28, 0x3d	; 61
     570:	de b7       	in	r29, 0x3e	; 62
	/*
	 * Overflow Interrupt Disable BIT0
	 */
	_TIMSK &= BIT0_CLEAR;
     572:	a9 e5       	ldi	r26, 0x59	; 89
     574:	b0 e0       	ldi	r27, 0x00	; 0
     576:	e9 e5       	ldi	r30, 0x59	; 89
     578:	f0 e0       	ldi	r31, 0x00	; 0
     57a:	80 81       	ld	r24, Z
     57c:	8e 7f       	andi	r24, 0xFE	; 254
     57e:	8c 93       	st	X, r24
	return RT_SUCCESS;
     580:	80 e0       	ldi	r24, 0x00	; 0
}
     582:	cf 91       	pop	r28
     584:	df 91       	pop	r29
     586:	08 95       	ret

00000588 <TIMER_u8DisableCOMP_Int>:
/****************************************************************************************/
u8 TIMER_u8DisableCOMP_Int(void)
{
     588:	df 93       	push	r29
     58a:	cf 93       	push	r28
     58c:	cd b7       	in	r28, 0x3d	; 61
     58e:	de b7       	in	r29, 0x3e	; 62
	/*
	 * Output Compare Match Interrupt Disable BIT1
	 */
	_TIMSK &= BIT1_CLEAR;
     590:	a9 e5       	ldi	r26, 0x59	; 89
     592:	b0 e0       	ldi	r27, 0x00	; 0
     594:	e9 e5       	ldi	r30, 0x59	; 89
     596:	f0 e0       	ldi	r31, 0x00	; 0
     598:	80 81       	ld	r24, Z
     59a:	8d 7f       	andi	r24, 0xFD	; 253
     59c:	8c 93       	st	X, r24
	return RT_SUCCESS;
     59e:	80 e0       	ldi	r24, 0x00	; 0
}
     5a0:	cf 91       	pop	r28
     5a2:	df 91       	pop	r29
     5a4:	08 95       	ret

000005a6 <TIMER_u8StartTimer>:
/****************************************************************************************/
u8 TIMER_u8StartTimer(u8 Clock)
{
     5a6:	df 93       	push	r29
     5a8:	cf 93       	push	r28
     5aa:	00 d0       	rcall	.+0      	; 0x5ac <TIMER_u8StartTimer+0x6>
     5ac:	00 d0       	rcall	.+0      	; 0x5ae <TIMER_u8StartTimer+0x8>
     5ae:	cd b7       	in	r28, 0x3d	; 61
     5b0:	de b7       	in	r29, 0x3e	; 62
     5b2:	8a 83       	std	Y+2, r24	; 0x02
	u8 Loc_u8Status=RT_SUCCESS;
     5b4:	19 82       	std	Y+1, r1	; 0x01
	_TCCR0 &= CLEAR_CLK_SRC_BITS;
     5b6:	a3 e5       	ldi	r26, 0x53	; 83
     5b8:	b0 e0       	ldi	r27, 0x00	; 0
     5ba:	e3 e5       	ldi	r30, 0x53	; 83
     5bc:	f0 e0       	ldi	r31, 0x00	; 0
     5be:	80 81       	ld	r24, Z
     5c0:	88 7f       	andi	r24, 0xF8	; 248
     5c2:	8c 93       	st	X, r24
	switch(Clock)
     5c4:	8a 81       	ldd	r24, Y+2	; 0x02
     5c6:	28 2f       	mov	r18, r24
     5c8:	30 e0       	ldi	r19, 0x00	; 0
     5ca:	3c 83       	std	Y+4, r19	; 0x04
     5cc:	2b 83       	std	Y+3, r18	; 0x03
     5ce:	8b 81       	ldd	r24, Y+3	; 0x03
     5d0:	9c 81       	ldd	r25, Y+4	; 0x04
     5d2:	83 30       	cpi	r24, 0x03	; 3
     5d4:	91 05       	cpc	r25, r1
     5d6:	59 f1       	breq	.+86     	; 0x62e <TIMER_u8StartTimer+0x88>
     5d8:	2b 81       	ldd	r18, Y+3	; 0x03
     5da:	3c 81       	ldd	r19, Y+4	; 0x04
     5dc:	24 30       	cpi	r18, 0x04	; 4
     5de:	31 05       	cpc	r19, r1
     5e0:	5c f4       	brge	.+22     	; 0x5f8 <TIMER_u8StartTimer+0x52>
     5e2:	8b 81       	ldd	r24, Y+3	; 0x03
     5e4:	9c 81       	ldd	r25, Y+4	; 0x04
     5e6:	81 30       	cpi	r24, 0x01	; 1
     5e8:	91 05       	cpc	r25, r1
     5ea:	89 f0       	breq	.+34     	; 0x60e <TIMER_u8StartTimer+0x68>
     5ec:	2b 81       	ldd	r18, Y+3	; 0x03
     5ee:	3c 81       	ldd	r19, Y+4	; 0x04
     5f0:	22 30       	cpi	r18, 0x02	; 2
     5f2:	31 05       	cpc	r19, r1
     5f4:	a1 f0       	breq	.+40     	; 0x61e <TIMER_u8StartTimer+0x78>
     5f6:	33 c0       	rjmp	.+102    	; 0x65e <TIMER_u8StartTimer+0xb8>
     5f8:	8b 81       	ldd	r24, Y+3	; 0x03
     5fa:	9c 81       	ldd	r25, Y+4	; 0x04
     5fc:	84 30       	cpi	r24, 0x04	; 4
     5fe:	91 05       	cpc	r25, r1
     600:	f1 f0       	breq	.+60     	; 0x63e <TIMER_u8StartTimer+0x98>
     602:	2b 81       	ldd	r18, Y+3	; 0x03
     604:	3c 81       	ldd	r19, Y+4	; 0x04
     606:	25 30       	cpi	r18, 0x05	; 5
     608:	31 05       	cpc	r19, r1
     60a:	09 f1       	breq	.+66     	; 0x64e <TIMER_u8StartTimer+0xa8>
     60c:	28 c0       	rjmp	.+80     	; 0x65e <TIMER_u8StartTimer+0xb8>
	{
	case ClkPre_1:
		_TCCR0 |= PRESCALER_1;
     60e:	a3 e5       	ldi	r26, 0x53	; 83
     610:	b0 e0       	ldi	r27, 0x00	; 0
     612:	e3 e5       	ldi	r30, 0x53	; 83
     614:	f0 e0       	ldi	r31, 0x00	; 0
     616:	80 81       	ld	r24, Z
     618:	81 60       	ori	r24, 0x01	; 1
     61a:	8c 93       	st	X, r24
     61c:	22 c0       	rjmp	.+68     	; 0x662 <TIMER_u8StartTimer+0xbc>
		break;

	case ClkPre_8:
		_TCCR0 |= PRESCALER_8;
     61e:	a3 e5       	ldi	r26, 0x53	; 83
     620:	b0 e0       	ldi	r27, 0x00	; 0
     622:	e3 e5       	ldi	r30, 0x53	; 83
     624:	f0 e0       	ldi	r31, 0x00	; 0
     626:	80 81       	ld	r24, Z
     628:	82 60       	ori	r24, 0x02	; 2
     62a:	8c 93       	st	X, r24
     62c:	1a c0       	rjmp	.+52     	; 0x662 <TIMER_u8StartTimer+0xbc>
		break;

	case ClkPre_64:
		_TCCR0 |= PRESCALER_64;
     62e:	a3 e5       	ldi	r26, 0x53	; 83
     630:	b0 e0       	ldi	r27, 0x00	; 0
     632:	e3 e5       	ldi	r30, 0x53	; 83
     634:	f0 e0       	ldi	r31, 0x00	; 0
     636:	80 81       	ld	r24, Z
     638:	83 60       	ori	r24, 0x03	; 3
     63a:	8c 93       	st	X, r24
     63c:	12 c0       	rjmp	.+36     	; 0x662 <TIMER_u8StartTimer+0xbc>
		break;

	case ClkPre_256:
		_TCCR0 &= PRESCALER_256;
     63e:	a3 e5       	ldi	r26, 0x53	; 83
     640:	b0 e0       	ldi	r27, 0x00	; 0
     642:	e3 e5       	ldi	r30, 0x53	; 83
     644:	f0 e0       	ldi	r31, 0x00	; 0
     646:	80 81       	ld	r24, Z
     648:	84 70       	andi	r24, 0x04	; 4
     64a:	8c 93       	st	X, r24
     64c:	0a c0       	rjmp	.+20     	; 0x662 <TIMER_u8StartTimer+0xbc>
		break;

	case ClkPre_1024:
		_TCCR0 |= (BIT0 | BIT2);
     64e:	a3 e5       	ldi	r26, 0x53	; 83
     650:	b0 e0       	ldi	r27, 0x00	; 0
     652:	e3 e5       	ldi	r30, 0x53	; 83
     654:	f0 e0       	ldi	r31, 0x00	; 0
     656:	80 81       	ld	r24, Z
     658:	85 60       	ori	r24, 0x05	; 5
     65a:	8c 93       	st	X, r24
     65c:	02 c0       	rjmp	.+4      	; 0x662 <TIMER_u8StartTimer+0xbc>
		break;

	default:
		Loc_u8Status=RT_ERROR;
     65e:	81 e0       	ldi	r24, 0x01	; 1
     660:	89 83       	std	Y+1, r24	; 0x01
		break;
	}
	return Loc_u8Status;
     662:	89 81       	ldd	r24, Y+1	; 0x01
}
     664:	0f 90       	pop	r0
     666:	0f 90       	pop	r0
     668:	0f 90       	pop	r0
     66a:	0f 90       	pop	r0
     66c:	cf 91       	pop	r28
     66e:	df 91       	pop	r29
     670:	08 95       	ret

00000672 <TIMER_u8StopTimer>:
/****************************************************************************************/
u8 TIMER_u8StopTimer(void)
{
     672:	df 93       	push	r29
     674:	cf 93       	push	r28
     676:	cd b7       	in	r28, 0x3d	; 61
     678:	de b7       	in	r29, 0x3e	; 62
	_TCCR0 &= CLEAR_MODE_BITS;
     67a:	a3 e5       	ldi	r26, 0x53	; 83
     67c:	b0 e0       	ldi	r27, 0x00	; 0
     67e:	e3 e5       	ldi	r30, 0x53	; 83
     680:	f0 e0       	ldi	r31, 0x00	; 0
     682:	80 81       	ld	r24, Z
     684:	87 78       	andi	r24, 0x87	; 135
     686:	8c 93       	st	X, r24
	_TCCR0 |= NO_CLOCK_SOURCE;
     688:	a3 e5       	ldi	r26, 0x53	; 83
     68a:	b0 e0       	ldi	r27, 0x00	; 0
     68c:	e3 e5       	ldi	r30, 0x53	; 83
     68e:	f0 e0       	ldi	r31, 0x00	; 0
     690:	80 81       	ld	r24, Z
     692:	8c 93       	st	X, r24
	return RT_SUCCESS;
     694:	80 e0       	ldi	r24, 0x00	; 0
}
     696:	cf 91       	pop	r28
     698:	df 91       	pop	r29
     69a:	08 95       	ret

0000069c <TIMER_vidLoadTimer>:

/****************************************************************************************/
u8 TIMER_vidLoadTimer(u8 Copy_u8Value)
{
     69c:	df 93       	push	r29
     69e:	cf 93       	push	r28
     6a0:	0f 92       	push	r0
     6a2:	cd b7       	in	r28, 0x3d	; 61
     6a4:	de b7       	in	r29, 0x3e	; 62
     6a6:	89 83       	std	Y+1, r24	; 0x01
	/*
	 * counter for the number of overflows (31)
	 * value = 127
	 */
	_TCNT0 = Copy_u8Value;
     6a8:	e2 e5       	ldi	r30, 0x52	; 82
     6aa:	f0 e0       	ldi	r31, 0x00	; 0
     6ac:	89 81       	ldd	r24, Y+1	; 0x01
     6ae:	80 83       	st	Z, r24
	return RT_SUCCESS;
     6b0:	80 e0       	ldi	r24, 0x00	; 0
}
     6b2:	0f 90       	pop	r0
     6b4:	cf 91       	pop	r28
     6b6:	df 91       	pop	r29
     6b8:	08 95       	ret

000006ba <TIMER_u8SetCallBack_OVF>:
/****************************************************************************************/
u8 TIMER_u8SetCallBack_OVF(void(*ptr)(void))
{
     6ba:	df 93       	push	r29
     6bc:	cf 93       	push	r28
     6be:	00 d0       	rcall	.+0      	; 0x6c0 <TIMER_u8SetCallBack_OVF+0x6>
     6c0:	0f 92       	push	r0
     6c2:	cd b7       	in	r28, 0x3d	; 61
     6c4:	de b7       	in	r29, 0x3e	; 62
     6c6:	9b 83       	std	Y+3, r25	; 0x03
     6c8:	8a 83       	std	Y+2, r24	; 0x02
	u8 Loc_u8Status = RT_SUCCESS;
     6ca:	19 82       	std	Y+1, r1	; 0x01
	if(ptr != NULL)
     6cc:	8a 81       	ldd	r24, Y+2	; 0x02
     6ce:	9b 81       	ldd	r25, Y+3	; 0x03
     6d0:	00 97       	sbiw	r24, 0x00	; 0
     6d2:	39 f0       	breq	.+14     	; 0x6e2 <TIMER_u8SetCallBack_OVF+0x28>
	{
		Cbf_ptr_OVF =  ptr;
     6d4:	8a 81       	ldd	r24, Y+2	; 0x02
     6d6:	9b 81       	ldd	r25, Y+3	; 0x03
     6d8:	90 93 6f 03 	sts	0x036F, r25
     6dc:	80 93 6e 03 	sts	0x036E, r24
     6e0:	02 c0       	rjmp	.+4      	; 0x6e6 <TIMER_u8SetCallBack_OVF+0x2c>
	}
	else
	{
		Loc_u8Status = RT_PARAM;
     6e2:	82 e0       	ldi	r24, 0x02	; 2
     6e4:	89 83       	std	Y+1, r24	; 0x01
	}
	return Loc_u8Status;
     6e6:	89 81       	ldd	r24, Y+1	; 0x01
}
     6e8:	0f 90       	pop	r0
     6ea:	0f 90       	pop	r0
     6ec:	0f 90       	pop	r0
     6ee:	cf 91       	pop	r28
     6f0:	df 91       	pop	r29
     6f2:	08 95       	ret

000006f4 <TIMER_u8SetCallBack_COMP>:
/****************************************************************************************/
u8 TIMER_u8SetCallBack_COMP(void(*ptr)(void))
{
     6f4:	df 93       	push	r29
     6f6:	cf 93       	push	r28
     6f8:	00 d0       	rcall	.+0      	; 0x6fa <TIMER_u8SetCallBack_COMP+0x6>
     6fa:	0f 92       	push	r0
     6fc:	cd b7       	in	r28, 0x3d	; 61
     6fe:	de b7       	in	r29, 0x3e	; 62
     700:	9b 83       	std	Y+3, r25	; 0x03
     702:	8a 83       	std	Y+2, r24	; 0x02
	u8 Loc_u8Status = RT_SUCCESS;
     704:	19 82       	std	Y+1, r1	; 0x01
	if(ptr != NULL)
     706:	8a 81       	ldd	r24, Y+2	; 0x02
     708:	9b 81       	ldd	r25, Y+3	; 0x03
     70a:	00 97       	sbiw	r24, 0x00	; 0
     70c:	39 f0       	breq	.+14     	; 0x71c <TIMER_u8SetCallBack_COMP+0x28>
	{
		Cbf_ptr_COMP =  ptr;
     70e:	8a 81       	ldd	r24, Y+2	; 0x02
     710:	9b 81       	ldd	r25, Y+3	; 0x03
     712:	90 93 71 03 	sts	0x0371, r25
     716:	80 93 70 03 	sts	0x0370, r24
     71a:	02 c0       	rjmp	.+4      	; 0x720 <TIMER_u8SetCallBack_COMP+0x2c>
	}
	else
	{
		Loc_u8Status = RT_PARAM;
     71c:	82 e0       	ldi	r24, 0x02	; 2
     71e:	89 83       	std	Y+1, r24	; 0x01
	}
	return Loc_u8Status;
     720:	89 81       	ldd	r24, Y+1	; 0x01
}
     722:	0f 90       	pop	r0
     724:	0f 90       	pop	r0
     726:	0f 90       	pop	r0
     728:	cf 91       	pop	r28
     72a:	df 91       	pop	r29
     72c:	08 95       	ret

0000072e <__vector_11>:
/****************************************************************************************/
ISR(TIMER0_OVF_vect)
{
     72e:	1f 92       	push	r1
     730:	0f 92       	push	r0
     732:	0f b6       	in	r0, 0x3f	; 63
     734:	0f 92       	push	r0
     736:	11 24       	eor	r1, r1
     738:	2f 93       	push	r18
     73a:	3f 93       	push	r19
     73c:	4f 93       	push	r20
     73e:	5f 93       	push	r21
     740:	6f 93       	push	r22
     742:	7f 93       	push	r23
     744:	8f 93       	push	r24
     746:	9f 93       	push	r25
     748:	af 93       	push	r26
     74a:	bf 93       	push	r27
     74c:	ef 93       	push	r30
     74e:	ff 93       	push	r31
     750:	df 93       	push	r29
     752:	cf 93       	push	r28
     754:	cd b7       	in	r28, 0x3d	; 61
     756:	de b7       	in	r29, 0x3e	; 62
	if( Cbf_ptr_OVF != NULL)
     758:	80 91 6e 03 	lds	r24, 0x036E
     75c:	90 91 6f 03 	lds	r25, 0x036F
     760:	00 97       	sbiw	r24, 0x00	; 0
     762:	41 f0       	breq	.+16     	; 0x774 <__vector_11+0x46>
	{
		/* Calling the function */
		TIMER_vidLoadTimer(248);
     764:	88 ef       	ldi	r24, 0xF8	; 248
     766:	0e 94 4e 03 	call	0x69c	; 0x69c <TIMER_vidLoadTimer>
		Cbf_ptr_OVF();
     76a:	e0 91 6e 03 	lds	r30, 0x036E
     76e:	f0 91 6f 03 	lds	r31, 0x036F
     772:	09 95       	icall
	}
	else
	{
		//Do Nothing
	}
}
     774:	cf 91       	pop	r28
     776:	df 91       	pop	r29
     778:	ff 91       	pop	r31
     77a:	ef 91       	pop	r30
     77c:	bf 91       	pop	r27
     77e:	af 91       	pop	r26
     780:	9f 91       	pop	r25
     782:	8f 91       	pop	r24
     784:	7f 91       	pop	r23
     786:	6f 91       	pop	r22
     788:	5f 91       	pop	r21
     78a:	4f 91       	pop	r20
     78c:	3f 91       	pop	r19
     78e:	2f 91       	pop	r18
     790:	0f 90       	pop	r0
     792:	0f be       	out	0x3f, r0	; 63
     794:	0f 90       	pop	r0
     796:	1f 90       	pop	r1
     798:	18 95       	reti

0000079a <__vector_10>:

/****************************************************************************************/
ISR(TIMER0_COMP_vect)
{
     79a:	1f 92       	push	r1
     79c:	0f 92       	push	r0
     79e:	0f b6       	in	r0, 0x3f	; 63
     7a0:	0f 92       	push	r0
     7a2:	11 24       	eor	r1, r1
     7a4:	2f 93       	push	r18
     7a6:	3f 93       	push	r19
     7a8:	4f 93       	push	r20
     7aa:	5f 93       	push	r21
     7ac:	6f 93       	push	r22
     7ae:	7f 93       	push	r23
     7b0:	8f 93       	push	r24
     7b2:	9f 93       	push	r25
     7b4:	af 93       	push	r26
     7b6:	bf 93       	push	r27
     7b8:	ef 93       	push	r30
     7ba:	ff 93       	push	r31
     7bc:	df 93       	push	r29
     7be:	cf 93       	push	r28
     7c0:	cd b7       	in	r28, 0x3d	; 61
     7c2:	de b7       	in	r29, 0x3e	; 62
	if( Cbf_ptr_COMP != NULL)
     7c4:	80 91 70 03 	lds	r24, 0x0370
     7c8:	90 91 71 03 	lds	r25, 0x0371
     7cc:	00 97       	sbiw	r24, 0x00	; 0
     7ce:	29 f0       	breq	.+10     	; 0x7da <__vector_10+0x40>
	{
		/*  Calling the function */
		Cbf_ptr_COMP();
     7d0:	e0 91 70 03 	lds	r30, 0x0370
     7d4:	f0 91 71 03 	lds	r31, 0x0371
     7d8:	09 95       	icall
	}
	else
	{
		//Do Nothing
	}
}
     7da:	cf 91       	pop	r28
     7dc:	df 91       	pop	r29
     7de:	ff 91       	pop	r31
     7e0:	ef 91       	pop	r30
     7e2:	bf 91       	pop	r27
     7e4:	af 91       	pop	r26
     7e6:	9f 91       	pop	r25
     7e8:	8f 91       	pop	r24
     7ea:	7f 91       	pop	r23
     7ec:	6f 91       	pop	r22
     7ee:	5f 91       	pop	r21
     7f0:	4f 91       	pop	r20
     7f2:	3f 91       	pop	r19
     7f4:	2f 91       	pop	r18
     7f6:	0f 90       	pop	r0
     7f8:	0f be       	out	0x3f, r0	; 63
     7fa:	0f 90       	pop	r0
     7fc:	1f 90       	pop	r1
     7fe:	18 95       	reti

00000800 <Port_vidInit>:
 *  Input/Output Parameter:
 * 						-Not Applicable
 * **************************************************************************************
 */
void Port_vidInit(void)
{
     800:	df 93       	push	r29
     802:	cf 93       	push	r28
     804:	cd b7       	in	r28, 0x3d	; 61
     806:	de b7       	in	r29, 0x3e	; 62
	// Set the default Direction and Value.
#else
#warning "Warning: Wrong Configuration for Pin 31 "
#endif //End of Pin 31 MODEs
	/* Assign the ports with the required values */
	_PORTA = CONC(PORT_u8PIN_7_DEF_VAL ,PORT_u8PIN_6_DEF_VAL ,PORT_u8PIN_5_DEF_VAL ,PORT_u8PIN_4_DEF_VAL ,PORT_u8PIN_3_DEF_VAL ,PORT_u8PIN_2_DEF_VAL ,PORT_u8PIN_1_DEF_VAL,PORT_u8PIN_0_DEF_VAL);
     808:	eb e3       	ldi	r30, 0x3B	; 59
     80a:	f0 e0       	ldi	r31, 0x00	; 0
     80c:	80 ef       	ldi	r24, 0xF0	; 240
     80e:	80 83       	st	Z, r24
	_PORTB = CONC(PORT_u8PIN_15_DEF_VAL,PORT_u8PIN_14_DEF_VAL,PORT_u8PIN_13_DEF_VAL,PORT_u8PIN_12_DEF_VAL,PORT_u8PIN_11_DEF_VAL,PORT_u8PIN_10_DEF_VAL,PORT_u8PIN_9_DEF_VAL,PORT_u8PIN_8_DEF_VAL);
     810:	e8 e3       	ldi	r30, 0x38	; 56
     812:	f0 e0       	ldi	r31, 0x00	; 0
     814:	80 ef       	ldi	r24, 0xF0	; 240
     816:	80 83       	st	Z, r24
	_PORTC = CONC(PORT_u8PIN_23_DEF_VAL,PORT_u8PIN_22_DEF_VAL,PORT_u8PIN_21_DEF_VAL,PORT_u8PIN_20_DEF_VAL,PORT_u8PIN_19_DEF_VAL,PORT_u8PIN_18_DEF_VAL,PORT_u8PIN_17_DEF_VAL,PORT_u8PIN_16_DEF_VAL);
     818:	e5 e3       	ldi	r30, 0x35	; 53
     81a:	f0 e0       	ldi	r31, 0x00	; 0
     81c:	10 82       	st	Z, r1
	_PORTD = CONC(PORT_u8PIN_31_DEF_VAL,PORT_u8PIN_30_DEF_VAL,PORT_u8PIN_29_DEF_VAL,PORT_u8PIN_28_DEF_VAL,PORT_u8PIN_27_DEF_VAL,PORT_u8PIN_26_DEF_VAL,PORT_u8PIN_25_DEF_VAL,PORT_u8PIN_24_DEF_VAL);
     81e:	e2 e3       	ldi	r30, 0x32	; 50
     820:	f0 e0       	ldi	r31, 0x00	; 0
     822:	10 82       	st	Z, r1

	/* Assign the ports with the required directions */
	_DDRA = CONC(PORT_u8PIN_7_DEF_DIR,PORT_u8PIN_6_DEF_DIR,PORT_u8PIN_5_DEF_DIR,PORT_u8PIN_4_DEF_DIR,PORT_u8PIN_3_DEF_DIR,PORT_u8PIN_2_DEF_DIR,PORT_u8PIN_1_DEF_DIR,PORT_u8PIN_0_DEF_DIR);
     824:	ea e3       	ldi	r30, 0x3A	; 58
     826:	f0 e0       	ldi	r31, 0x00	; 0
     828:	8f e0       	ldi	r24, 0x0F	; 15
     82a:	80 83       	st	Z, r24
	_DDRB = CONC(PORT_u8PIN_15_DEF_DIR,PORT_u8PIN_14_DEF_DIR,PORT_u8PIN_13_DEF_DIR,PORT_u8PIN_12_DEF_DIR,PORT_u8PIN_11_DEF_DIR,PORT_u8PIN_10_DEF_DIR,PORT_u8PIN_9_DEF_DIR,PORT_u8PIN_8_DEF_DIR);
     82c:	e7 e3       	ldi	r30, 0x37	; 55
     82e:	f0 e0       	ldi	r31, 0x00	; 0
     830:	8f e0       	ldi	r24, 0x0F	; 15
     832:	80 83       	st	Z, r24
	_DDRC = CONC(PORT_u8PIN_23_DEF_DIR,PORT_u8PIN_22_DEF_DIR,PORT_u8PIN_21_DEF_DIR,PORT_u8PIN_20_DEF_DIR,PORT_u8PIN_19_DEF_DIR,PORT_u8PIN_18_DEF_DIR,PORT_u8PIN_17_DEF_DIR,PORT_u8PIN_16_DEF_DIR);
     834:	e4 e3       	ldi	r30, 0x34	; 52
     836:	f0 e0       	ldi	r31, 0x00	; 0
     838:	8f ef       	ldi	r24, 0xFF	; 255
     83a:	80 83       	st	Z, r24
	_DDRD = CONC(PORT_u8PIN_31_DEF_DIR,PORT_u8PIN_30_DEF_DIR,PORT_u8PIN_29_DEF_DIR,PORT_u8PIN_28_DEF_DIR,PORT_u8PIN_27_DEF_DIR,PORT_u8PIN_26_DEF_DIR,PORT_u8PIN_25_DEF_DIR,PORT_u8PIN_24_DEF_DIR);
     83c:	e1 e3       	ldi	r30, 0x31	; 49
     83e:	f0 e0       	ldi	r31, 0x00	; 0
     840:	8f ef       	ldi	r24, 0xFF	; 255
     842:	80 83       	st	Z, r24
}
     844:	cf 91       	pop	r28
     846:	df 91       	pop	r29
     848:	08 95       	ret

0000084a <Port_vidSetPinMode>:
 * Input/Output Parameter:
 * 						-Not Applicable
 * **************************************************************************************
 */
void Port_vidSetPinMode(u8 Copy_u8SwPinId,u8 Copy_u8SwPinMODE)
{
     84a:	df 93       	push	r29
     84c:	cf 93       	push	r28
     84e:	cd b7       	in	r28, 0x3d	; 61
     850:	de b7       	in	r29, 0x3e	; 62
     852:	2e 97       	sbiw	r28, 0x0e	; 14
     854:	0f b6       	in	r0, 0x3f	; 63
     856:	f8 94       	cli
     858:	de bf       	out	0x3e, r29	; 62
     85a:	0f be       	out	0x3f, r0	; 63
     85c:	cd bf       	out	0x3d, r28	; 61
     85e:	8b 83       	std	Y+3, r24	; 0x03
     860:	6c 83       	std	Y+4, r22	; 0x04
	u8 Loc_u8PortId;//variable for Port Id
	u8 Loc_u8PinId;//variable for Pin Id

	Loc_u8PortId = Copy_u8SwPinId / (u8)8;//To get the port id 0,1,2,3
     862:	8b 81       	ldd	r24, Y+3	; 0x03
     864:	86 95       	lsr	r24
     866:	86 95       	lsr	r24
     868:	86 95       	lsr	r24
     86a:	8a 83       	std	Y+2, r24	; 0x02
	Loc_u8PinId =  Copy_u8SwPinId % (u8)8;//To get the pin id 0 ->> 31
     86c:	8b 81       	ldd	r24, Y+3	; 0x03
     86e:	87 70       	andi	r24, 0x07	; 7
     870:	89 83       	std	Y+1, r24	; 0x01


	switch(Loc_u8PortId) //switch case on port and pins
     872:	8a 81       	ldd	r24, Y+2	; 0x02
     874:	28 2f       	mov	r18, r24
     876:	30 e0       	ldi	r19, 0x00	; 0
     878:	3e 87       	std	Y+14, r19	; 0x0e
     87a:	2d 87       	std	Y+13, r18	; 0x0d
     87c:	8d 85       	ldd	r24, Y+13	; 0x0d
     87e:	9e 85       	ldd	r25, Y+14	; 0x0e
     880:	81 30       	cpi	r24, 0x01	; 1
     882:	91 05       	cpc	r25, r1
     884:	09 f4       	brne	.+2      	; 0x888 <__stack+0x29>
     886:	d6 c0       	rjmp	.+428    	; 0xa34 <__stack+0x1d5>
     888:	2d 85       	ldd	r18, Y+13	; 0x0d
     88a:	3e 85       	ldd	r19, Y+14	; 0x0e
     88c:	22 30       	cpi	r18, 0x02	; 2
     88e:	31 05       	cpc	r19, r1
     890:	2c f4       	brge	.+10     	; 0x89c <__stack+0x3d>
     892:	8d 85       	ldd	r24, Y+13	; 0x0d
     894:	9e 85       	ldd	r25, Y+14	; 0x0e
     896:	00 97       	sbiw	r24, 0x00	; 0
     898:	71 f0       	breq	.+28     	; 0x8b6 <__stack+0x57>
     89a:	08 c3       	rjmp	.+1552   	; 0xeac <__stack+0x64d>
     89c:	2d 85       	ldd	r18, Y+13	; 0x0d
     89e:	3e 85       	ldd	r19, Y+14	; 0x0e
     8a0:	22 30       	cpi	r18, 0x02	; 2
     8a2:	31 05       	cpc	r19, r1
     8a4:	09 f4       	brne	.+2      	; 0x8a8 <__stack+0x49>
     8a6:	85 c1       	rjmp	.+778    	; 0xbb2 <__stack+0x353>
     8a8:	8d 85       	ldd	r24, Y+13	; 0x0d
     8aa:	9e 85       	ldd	r25, Y+14	; 0x0e
     8ac:	83 30       	cpi	r24, 0x03	; 3
     8ae:	91 05       	cpc	r25, r1
     8b0:	09 f4       	brne	.+2      	; 0x8b4 <__stack+0x55>
     8b2:	3e c2       	rjmp	.+1148   	; 0xd30 <__stack+0x4d1>
     8b4:	fb c2       	rjmp	.+1526   	; 0xeac <__stack+0x64d>
	{
	case 0: // 0 = PORTA
		switch(Copy_u8SwPinMODE) //switch case on pin modes
     8b6:	8c 81       	ldd	r24, Y+4	; 0x04
     8b8:	28 2f       	mov	r18, r24
     8ba:	30 e0       	ldi	r19, 0x00	; 0
     8bc:	3c 87       	std	Y+12, r19	; 0x0c
     8be:	2b 87       	std	Y+11, r18	; 0x0b
     8c0:	8b 85       	ldd	r24, Y+11	; 0x0b
     8c2:	9c 85       	ldd	r25, Y+12	; 0x0c
     8c4:	82 30       	cpi	r24, 0x02	; 2
     8c6:	91 05       	cpc	r25, r1
     8c8:	09 f4       	brne	.+2      	; 0x8cc <__stack+0x6d>
     8ca:	3f c0       	rjmp	.+126    	; 0x94a <__stack+0xeb>
     8cc:	2b 85       	ldd	r18, Y+11	; 0x0b
     8ce:	3c 85       	ldd	r19, Y+12	; 0x0c
     8d0:	23 30       	cpi	r18, 0x03	; 3
     8d2:	31 05       	cpc	r19, r1
     8d4:	34 f4       	brge	.+12     	; 0x8e2 <__stack+0x83>
     8d6:	8b 85       	ldd	r24, Y+11	; 0x0b
     8d8:	9c 85       	ldd	r25, Y+12	; 0x0c
     8da:	81 30       	cpi	r24, 0x01	; 1
     8dc:	91 05       	cpc	r25, r1
     8de:	71 f0       	breq	.+28     	; 0x8fc <__stack+0x9d>
     8e0:	e5 c2       	rjmp	.+1482   	; 0xeac <__stack+0x64d>
     8e2:	2b 85       	ldd	r18, Y+11	; 0x0b
     8e4:	3c 85       	ldd	r19, Y+12	; 0x0c
     8e6:	23 30       	cpi	r18, 0x03	; 3
     8e8:	31 05       	cpc	r19, r1
     8ea:	09 f4       	brne	.+2      	; 0x8ee <__stack+0x8f>
     8ec:	54 c0       	rjmp	.+168    	; 0x996 <__stack+0x137>
     8ee:	8b 85       	ldd	r24, Y+11	; 0x0b
     8f0:	9c 85       	ldd	r25, Y+12	; 0x0c
     8f2:	84 30       	cpi	r24, 0x04	; 4
     8f4:	91 05       	cpc	r25, r1
     8f6:	09 f4       	brne	.+2      	; 0x8fa <__stack+0x9b>
     8f8:	76 c0       	rjmp	.+236    	; 0x9e6 <__stack+0x187>
     8fa:	d8 c2       	rjmp	.+1456   	; 0xeac <__stack+0x64d>
		case 1:
			/* In PORT_u8OUTPUT_LOW mode :
			 * 				Set the pin direction as OUTPUT
			 * 				Set the pin value as LOW
			 */
			CLR_BIT(_PORTA,Loc_u8PinId); //set the pin value in port A as LOW
     8fc:	ab e3       	ldi	r26, 0x3B	; 59
     8fe:	b0 e0       	ldi	r27, 0x00	; 0
     900:	eb e3       	ldi	r30, 0x3B	; 59
     902:	f0 e0       	ldi	r31, 0x00	; 0
     904:	80 81       	ld	r24, Z
     906:	48 2f       	mov	r20, r24
     908:	89 81       	ldd	r24, Y+1	; 0x01
     90a:	28 2f       	mov	r18, r24
     90c:	30 e0       	ldi	r19, 0x00	; 0
     90e:	81 e0       	ldi	r24, 0x01	; 1
     910:	90 e0       	ldi	r25, 0x00	; 0
     912:	02 c0       	rjmp	.+4      	; 0x918 <__stack+0xb9>
     914:	88 0f       	add	r24, r24
     916:	99 1f       	adc	r25, r25
     918:	2a 95       	dec	r18
     91a:	e2 f7       	brpl	.-8      	; 0x914 <__stack+0xb5>
     91c:	80 95       	com	r24
     91e:	84 23       	and	r24, r20
     920:	8c 93       	st	X, r24
			SET_BIT(_DDRA,Loc_u8PinId); //set the pin direction in port A as OUTPUT
     922:	aa e3       	ldi	r26, 0x3A	; 58
     924:	b0 e0       	ldi	r27, 0x00	; 0
     926:	ea e3       	ldi	r30, 0x3A	; 58
     928:	f0 e0       	ldi	r31, 0x00	; 0
     92a:	80 81       	ld	r24, Z
     92c:	48 2f       	mov	r20, r24
     92e:	89 81       	ldd	r24, Y+1	; 0x01
     930:	28 2f       	mov	r18, r24
     932:	30 e0       	ldi	r19, 0x00	; 0
     934:	81 e0       	ldi	r24, 0x01	; 1
     936:	90 e0       	ldi	r25, 0x00	; 0
     938:	02 2e       	mov	r0, r18
     93a:	02 c0       	rjmp	.+4      	; 0x940 <__stack+0xe1>
     93c:	88 0f       	add	r24, r24
     93e:	99 1f       	adc	r25, r25
     940:	0a 94       	dec	r0
     942:	e2 f7       	brpl	.-8      	; 0x93c <__stack+0xdd>
     944:	84 2b       	or	r24, r20
     946:	8c 93       	st	X, r24
     948:	b1 c2       	rjmp	.+1378   	; 0xeac <__stack+0x64d>
		case 2:
			/* In PORT_u8OUTPUT_HIGH mode :
			 * 				Set the pin direction as OUTPUT
			 * 				Set the pin value as HIGH
			 */
			SET_BIT(_PORTA,Loc_u8PinId); //set the pin value in port A as LOW
     94a:	ab e3       	ldi	r26, 0x3B	; 59
     94c:	b0 e0       	ldi	r27, 0x00	; 0
     94e:	eb e3       	ldi	r30, 0x3B	; 59
     950:	f0 e0       	ldi	r31, 0x00	; 0
     952:	80 81       	ld	r24, Z
     954:	48 2f       	mov	r20, r24
     956:	89 81       	ldd	r24, Y+1	; 0x01
     958:	28 2f       	mov	r18, r24
     95a:	30 e0       	ldi	r19, 0x00	; 0
     95c:	81 e0       	ldi	r24, 0x01	; 1
     95e:	90 e0       	ldi	r25, 0x00	; 0
     960:	02 c0       	rjmp	.+4      	; 0x966 <__stack+0x107>
     962:	88 0f       	add	r24, r24
     964:	99 1f       	adc	r25, r25
     966:	2a 95       	dec	r18
     968:	e2 f7       	brpl	.-8      	; 0x962 <__stack+0x103>
     96a:	84 2b       	or	r24, r20
     96c:	8c 93       	st	X, r24
			SET_BIT(_DDRA,Loc_u8PinId); //set the pin direction in port A as OUTPUT
     96e:	aa e3       	ldi	r26, 0x3A	; 58
     970:	b0 e0       	ldi	r27, 0x00	; 0
     972:	ea e3       	ldi	r30, 0x3A	; 58
     974:	f0 e0       	ldi	r31, 0x00	; 0
     976:	80 81       	ld	r24, Z
     978:	48 2f       	mov	r20, r24
     97a:	89 81       	ldd	r24, Y+1	; 0x01
     97c:	28 2f       	mov	r18, r24
     97e:	30 e0       	ldi	r19, 0x00	; 0
     980:	81 e0       	ldi	r24, 0x01	; 1
     982:	90 e0       	ldi	r25, 0x00	; 0
     984:	02 2e       	mov	r0, r18
     986:	02 c0       	rjmp	.+4      	; 0x98c <__stack+0x12d>
     988:	88 0f       	add	r24, r24
     98a:	99 1f       	adc	r25, r25
     98c:	0a 94       	dec	r0
     98e:	e2 f7       	brpl	.-8      	; 0x988 <__stack+0x129>
     990:	84 2b       	or	r24, r20
     992:	8c 93       	st	X, r24
     994:	8b c2       	rjmp	.+1302   	; 0xeac <__stack+0x64d>
		case 3:
			/* In PORT_u8INPUT_HIGH_IMP mode :
			 * 				Set the pin direction as INPUT
			 * 				Deactivate the pull up resistance
			 */
			CLR_BIT(_PORTA,Loc_u8PinId); //set the pin value in port A as LOW
     996:	ab e3       	ldi	r26, 0x3B	; 59
     998:	b0 e0       	ldi	r27, 0x00	; 0
     99a:	eb e3       	ldi	r30, 0x3B	; 59
     99c:	f0 e0       	ldi	r31, 0x00	; 0
     99e:	80 81       	ld	r24, Z
     9a0:	48 2f       	mov	r20, r24
     9a2:	89 81       	ldd	r24, Y+1	; 0x01
     9a4:	28 2f       	mov	r18, r24
     9a6:	30 e0       	ldi	r19, 0x00	; 0
     9a8:	81 e0       	ldi	r24, 0x01	; 1
     9aa:	90 e0       	ldi	r25, 0x00	; 0
     9ac:	02 c0       	rjmp	.+4      	; 0x9b2 <__stack+0x153>
     9ae:	88 0f       	add	r24, r24
     9b0:	99 1f       	adc	r25, r25
     9b2:	2a 95       	dec	r18
     9b4:	e2 f7       	brpl	.-8      	; 0x9ae <__stack+0x14f>
     9b6:	80 95       	com	r24
     9b8:	84 23       	and	r24, r20
     9ba:	8c 93       	st	X, r24
			CLR_BIT(_DDRA,Loc_u8PinId); //set the pin direction in port A as INPUT
     9bc:	aa e3       	ldi	r26, 0x3A	; 58
     9be:	b0 e0       	ldi	r27, 0x00	; 0
     9c0:	ea e3       	ldi	r30, 0x3A	; 58
     9c2:	f0 e0       	ldi	r31, 0x00	; 0
     9c4:	80 81       	ld	r24, Z
     9c6:	48 2f       	mov	r20, r24
     9c8:	89 81       	ldd	r24, Y+1	; 0x01
     9ca:	28 2f       	mov	r18, r24
     9cc:	30 e0       	ldi	r19, 0x00	; 0
     9ce:	81 e0       	ldi	r24, 0x01	; 1
     9d0:	90 e0       	ldi	r25, 0x00	; 0
     9d2:	02 2e       	mov	r0, r18
     9d4:	02 c0       	rjmp	.+4      	; 0x9da <__stack+0x17b>
     9d6:	88 0f       	add	r24, r24
     9d8:	99 1f       	adc	r25, r25
     9da:	0a 94       	dec	r0
     9dc:	e2 f7       	brpl	.-8      	; 0x9d6 <__stack+0x177>
     9de:	80 95       	com	r24
     9e0:	84 23       	and	r24, r20
     9e2:	8c 93       	st	X, r24
     9e4:	63 c2       	rjmp	.+1222   	; 0xeac <__stack+0x64d>
		case 4:
			/* In PORT_u8INPUT_PULL_UP mode :
			 * 				Set the pin direction as INPUT
			 * 				Activate the pull up resistance
			 */
			SET_BIT(_PORTA,Loc_u8PinId); //set the pin value in port A as LOW
     9e6:	ab e3       	ldi	r26, 0x3B	; 59
     9e8:	b0 e0       	ldi	r27, 0x00	; 0
     9ea:	eb e3       	ldi	r30, 0x3B	; 59
     9ec:	f0 e0       	ldi	r31, 0x00	; 0
     9ee:	80 81       	ld	r24, Z
     9f0:	48 2f       	mov	r20, r24
     9f2:	89 81       	ldd	r24, Y+1	; 0x01
     9f4:	28 2f       	mov	r18, r24
     9f6:	30 e0       	ldi	r19, 0x00	; 0
     9f8:	81 e0       	ldi	r24, 0x01	; 1
     9fa:	90 e0       	ldi	r25, 0x00	; 0
     9fc:	02 c0       	rjmp	.+4      	; 0xa02 <__stack+0x1a3>
     9fe:	88 0f       	add	r24, r24
     a00:	99 1f       	adc	r25, r25
     a02:	2a 95       	dec	r18
     a04:	e2 f7       	brpl	.-8      	; 0x9fe <__stack+0x19f>
     a06:	84 2b       	or	r24, r20
     a08:	8c 93       	st	X, r24
			CLR_BIT(_DDRA,Loc_u8PinId); //set the pin direction in port A as INPUT
     a0a:	aa e3       	ldi	r26, 0x3A	; 58
     a0c:	b0 e0       	ldi	r27, 0x00	; 0
     a0e:	ea e3       	ldi	r30, 0x3A	; 58
     a10:	f0 e0       	ldi	r31, 0x00	; 0
     a12:	80 81       	ld	r24, Z
     a14:	48 2f       	mov	r20, r24
     a16:	89 81       	ldd	r24, Y+1	; 0x01
     a18:	28 2f       	mov	r18, r24
     a1a:	30 e0       	ldi	r19, 0x00	; 0
     a1c:	81 e0       	ldi	r24, 0x01	; 1
     a1e:	90 e0       	ldi	r25, 0x00	; 0
     a20:	02 2e       	mov	r0, r18
     a22:	02 c0       	rjmp	.+4      	; 0xa28 <__stack+0x1c9>
     a24:	88 0f       	add	r24, r24
     a26:	99 1f       	adc	r25, r25
     a28:	0a 94       	dec	r0
     a2a:	e2 f7       	brpl	.-8      	; 0xa24 <__stack+0x1c5>
     a2c:	80 95       	com	r24
     a2e:	84 23       	and	r24, r20
     a30:	8c 93       	st	X, r24
     a32:	3c c2       	rjmp	.+1144   	; 0xeac <__stack+0x64d>
			break;
		} //end of the "switch case on pin modes"
		break;
		/*****************************************************/
		case 1: // 1 = PORTB
			switch(Copy_u8SwPinMODE) //switch case on pin modes
     a34:	8c 81       	ldd	r24, Y+4	; 0x04
     a36:	28 2f       	mov	r18, r24
     a38:	30 e0       	ldi	r19, 0x00	; 0
     a3a:	3a 87       	std	Y+10, r19	; 0x0a
     a3c:	29 87       	std	Y+9, r18	; 0x09
     a3e:	89 85       	ldd	r24, Y+9	; 0x09
     a40:	9a 85       	ldd	r25, Y+10	; 0x0a
     a42:	82 30       	cpi	r24, 0x02	; 2
     a44:	91 05       	cpc	r25, r1
     a46:	09 f4       	brne	.+2      	; 0xa4a <__stack+0x1eb>
     a48:	3f c0       	rjmp	.+126    	; 0xac8 <__stack+0x269>
     a4a:	29 85       	ldd	r18, Y+9	; 0x09
     a4c:	3a 85       	ldd	r19, Y+10	; 0x0a
     a4e:	23 30       	cpi	r18, 0x03	; 3
     a50:	31 05       	cpc	r19, r1
     a52:	34 f4       	brge	.+12     	; 0xa60 <__stack+0x201>
     a54:	89 85       	ldd	r24, Y+9	; 0x09
     a56:	9a 85       	ldd	r25, Y+10	; 0x0a
     a58:	81 30       	cpi	r24, 0x01	; 1
     a5a:	91 05       	cpc	r25, r1
     a5c:	71 f0       	breq	.+28     	; 0xa7a <__stack+0x21b>
     a5e:	26 c2       	rjmp	.+1100   	; 0xeac <__stack+0x64d>
     a60:	29 85       	ldd	r18, Y+9	; 0x09
     a62:	3a 85       	ldd	r19, Y+10	; 0x0a
     a64:	23 30       	cpi	r18, 0x03	; 3
     a66:	31 05       	cpc	r19, r1
     a68:	09 f4       	brne	.+2      	; 0xa6c <__stack+0x20d>
     a6a:	54 c0       	rjmp	.+168    	; 0xb14 <__stack+0x2b5>
     a6c:	89 85       	ldd	r24, Y+9	; 0x09
     a6e:	9a 85       	ldd	r25, Y+10	; 0x0a
     a70:	84 30       	cpi	r24, 0x04	; 4
     a72:	91 05       	cpc	r25, r1
     a74:	09 f4       	brne	.+2      	; 0xa78 <__stack+0x219>
     a76:	76 c0       	rjmp	.+236    	; 0xb64 <__stack+0x305>
     a78:	19 c2       	rjmp	.+1074   	; 0xeac <__stack+0x64d>
			case 1:
				/* In PORT_u8OUTPUT_LOW mode :
				 * 				Set the pin direction as OUTPUT
				 * 				Set the pin value as LOW
				 */
				CLR_BIT(_PORTA,Loc_u8PinId); //set the pin value in port A as LOW
     a7a:	ab e3       	ldi	r26, 0x3B	; 59
     a7c:	b0 e0       	ldi	r27, 0x00	; 0
     a7e:	eb e3       	ldi	r30, 0x3B	; 59
     a80:	f0 e0       	ldi	r31, 0x00	; 0
     a82:	80 81       	ld	r24, Z
     a84:	48 2f       	mov	r20, r24
     a86:	89 81       	ldd	r24, Y+1	; 0x01
     a88:	28 2f       	mov	r18, r24
     a8a:	30 e0       	ldi	r19, 0x00	; 0
     a8c:	81 e0       	ldi	r24, 0x01	; 1
     a8e:	90 e0       	ldi	r25, 0x00	; 0
     a90:	02 c0       	rjmp	.+4      	; 0xa96 <__stack+0x237>
     a92:	88 0f       	add	r24, r24
     a94:	99 1f       	adc	r25, r25
     a96:	2a 95       	dec	r18
     a98:	e2 f7       	brpl	.-8      	; 0xa92 <__stack+0x233>
     a9a:	80 95       	com	r24
     a9c:	84 23       	and	r24, r20
     a9e:	8c 93       	st	X, r24
				SET_BIT(_DDRA,Loc_u8PinId); //set the pin direction in port A as OUTPUT
     aa0:	aa e3       	ldi	r26, 0x3A	; 58
     aa2:	b0 e0       	ldi	r27, 0x00	; 0
     aa4:	ea e3       	ldi	r30, 0x3A	; 58
     aa6:	f0 e0       	ldi	r31, 0x00	; 0
     aa8:	80 81       	ld	r24, Z
     aaa:	48 2f       	mov	r20, r24
     aac:	89 81       	ldd	r24, Y+1	; 0x01
     aae:	28 2f       	mov	r18, r24
     ab0:	30 e0       	ldi	r19, 0x00	; 0
     ab2:	81 e0       	ldi	r24, 0x01	; 1
     ab4:	90 e0       	ldi	r25, 0x00	; 0
     ab6:	02 2e       	mov	r0, r18
     ab8:	02 c0       	rjmp	.+4      	; 0xabe <__stack+0x25f>
     aba:	88 0f       	add	r24, r24
     abc:	99 1f       	adc	r25, r25
     abe:	0a 94       	dec	r0
     ac0:	e2 f7       	brpl	.-8      	; 0xaba <__stack+0x25b>
     ac2:	84 2b       	or	r24, r20
     ac4:	8c 93       	st	X, r24
     ac6:	f2 c1       	rjmp	.+996    	; 0xeac <__stack+0x64d>
			case 2:
				/* In PORT_u8OUTPUT_HIGH mode :
				 * 				Set the pin direction as OUTPUT
				 * 				Set the pin value as HIGH
				 */
				SET_BIT(_PORTA,Loc_u8PinId); //set the pin value in port A as LOW
     ac8:	ab e3       	ldi	r26, 0x3B	; 59
     aca:	b0 e0       	ldi	r27, 0x00	; 0
     acc:	eb e3       	ldi	r30, 0x3B	; 59
     ace:	f0 e0       	ldi	r31, 0x00	; 0
     ad0:	80 81       	ld	r24, Z
     ad2:	48 2f       	mov	r20, r24
     ad4:	89 81       	ldd	r24, Y+1	; 0x01
     ad6:	28 2f       	mov	r18, r24
     ad8:	30 e0       	ldi	r19, 0x00	; 0
     ada:	81 e0       	ldi	r24, 0x01	; 1
     adc:	90 e0       	ldi	r25, 0x00	; 0
     ade:	02 c0       	rjmp	.+4      	; 0xae4 <__stack+0x285>
     ae0:	88 0f       	add	r24, r24
     ae2:	99 1f       	adc	r25, r25
     ae4:	2a 95       	dec	r18
     ae6:	e2 f7       	brpl	.-8      	; 0xae0 <__stack+0x281>
     ae8:	84 2b       	or	r24, r20
     aea:	8c 93       	st	X, r24
				SET_BIT(_DDRA,Loc_u8PinId); //set the pin direction in port A as OUTPUT
     aec:	aa e3       	ldi	r26, 0x3A	; 58
     aee:	b0 e0       	ldi	r27, 0x00	; 0
     af0:	ea e3       	ldi	r30, 0x3A	; 58
     af2:	f0 e0       	ldi	r31, 0x00	; 0
     af4:	80 81       	ld	r24, Z
     af6:	48 2f       	mov	r20, r24
     af8:	89 81       	ldd	r24, Y+1	; 0x01
     afa:	28 2f       	mov	r18, r24
     afc:	30 e0       	ldi	r19, 0x00	; 0
     afe:	81 e0       	ldi	r24, 0x01	; 1
     b00:	90 e0       	ldi	r25, 0x00	; 0
     b02:	02 2e       	mov	r0, r18
     b04:	02 c0       	rjmp	.+4      	; 0xb0a <__stack+0x2ab>
     b06:	88 0f       	add	r24, r24
     b08:	99 1f       	adc	r25, r25
     b0a:	0a 94       	dec	r0
     b0c:	e2 f7       	brpl	.-8      	; 0xb06 <__stack+0x2a7>
     b0e:	84 2b       	or	r24, r20
     b10:	8c 93       	st	X, r24
     b12:	cc c1       	rjmp	.+920    	; 0xeac <__stack+0x64d>
			case 3:
				/* In PORT_u8INPUT_HIGH_IMP mode :
				 * 				Set the pin direction as INPUT
				 * 				Deactivate the pull up resistance
				 */
				CLR_BIT(_PORTA,Loc_u8PinId); //set the pin value in port A as LOW
     b14:	ab e3       	ldi	r26, 0x3B	; 59
     b16:	b0 e0       	ldi	r27, 0x00	; 0
     b18:	eb e3       	ldi	r30, 0x3B	; 59
     b1a:	f0 e0       	ldi	r31, 0x00	; 0
     b1c:	80 81       	ld	r24, Z
     b1e:	48 2f       	mov	r20, r24
     b20:	89 81       	ldd	r24, Y+1	; 0x01
     b22:	28 2f       	mov	r18, r24
     b24:	30 e0       	ldi	r19, 0x00	; 0
     b26:	81 e0       	ldi	r24, 0x01	; 1
     b28:	90 e0       	ldi	r25, 0x00	; 0
     b2a:	02 c0       	rjmp	.+4      	; 0xb30 <__stack+0x2d1>
     b2c:	88 0f       	add	r24, r24
     b2e:	99 1f       	adc	r25, r25
     b30:	2a 95       	dec	r18
     b32:	e2 f7       	brpl	.-8      	; 0xb2c <__stack+0x2cd>
     b34:	80 95       	com	r24
     b36:	84 23       	and	r24, r20
     b38:	8c 93       	st	X, r24
				CLR_BIT(_DDRA,Loc_u8PinId); //set the pin direction in port A as INPUT
     b3a:	aa e3       	ldi	r26, 0x3A	; 58
     b3c:	b0 e0       	ldi	r27, 0x00	; 0
     b3e:	ea e3       	ldi	r30, 0x3A	; 58
     b40:	f0 e0       	ldi	r31, 0x00	; 0
     b42:	80 81       	ld	r24, Z
     b44:	48 2f       	mov	r20, r24
     b46:	89 81       	ldd	r24, Y+1	; 0x01
     b48:	28 2f       	mov	r18, r24
     b4a:	30 e0       	ldi	r19, 0x00	; 0
     b4c:	81 e0       	ldi	r24, 0x01	; 1
     b4e:	90 e0       	ldi	r25, 0x00	; 0
     b50:	02 2e       	mov	r0, r18
     b52:	02 c0       	rjmp	.+4      	; 0xb58 <__stack+0x2f9>
     b54:	88 0f       	add	r24, r24
     b56:	99 1f       	adc	r25, r25
     b58:	0a 94       	dec	r0
     b5a:	e2 f7       	brpl	.-8      	; 0xb54 <__stack+0x2f5>
     b5c:	80 95       	com	r24
     b5e:	84 23       	and	r24, r20
     b60:	8c 93       	st	X, r24
     b62:	a4 c1       	rjmp	.+840    	; 0xeac <__stack+0x64d>
			case 4:
				/* In PORT_u8INPUT_PULL_UP mode :
				 * 				Set the pin direction as INPUT
				 * 				Activate the pull up resistance
				 */
				SET_BIT(_PORTA,Loc_u8PinId); //set the pin value in port A as LOW
     b64:	ab e3       	ldi	r26, 0x3B	; 59
     b66:	b0 e0       	ldi	r27, 0x00	; 0
     b68:	eb e3       	ldi	r30, 0x3B	; 59
     b6a:	f0 e0       	ldi	r31, 0x00	; 0
     b6c:	80 81       	ld	r24, Z
     b6e:	48 2f       	mov	r20, r24
     b70:	89 81       	ldd	r24, Y+1	; 0x01
     b72:	28 2f       	mov	r18, r24
     b74:	30 e0       	ldi	r19, 0x00	; 0
     b76:	81 e0       	ldi	r24, 0x01	; 1
     b78:	90 e0       	ldi	r25, 0x00	; 0
     b7a:	02 c0       	rjmp	.+4      	; 0xb80 <__stack+0x321>
     b7c:	88 0f       	add	r24, r24
     b7e:	99 1f       	adc	r25, r25
     b80:	2a 95       	dec	r18
     b82:	e2 f7       	brpl	.-8      	; 0xb7c <__stack+0x31d>
     b84:	84 2b       	or	r24, r20
     b86:	8c 93       	st	X, r24
				CLR_BIT(_DDRA,Loc_u8PinId); //set the pin direction in port A as INPUT
     b88:	aa e3       	ldi	r26, 0x3A	; 58
     b8a:	b0 e0       	ldi	r27, 0x00	; 0
     b8c:	ea e3       	ldi	r30, 0x3A	; 58
     b8e:	f0 e0       	ldi	r31, 0x00	; 0
     b90:	80 81       	ld	r24, Z
     b92:	48 2f       	mov	r20, r24
     b94:	89 81       	ldd	r24, Y+1	; 0x01
     b96:	28 2f       	mov	r18, r24
     b98:	30 e0       	ldi	r19, 0x00	; 0
     b9a:	81 e0       	ldi	r24, 0x01	; 1
     b9c:	90 e0       	ldi	r25, 0x00	; 0
     b9e:	02 2e       	mov	r0, r18
     ba0:	02 c0       	rjmp	.+4      	; 0xba6 <__stack+0x347>
     ba2:	88 0f       	add	r24, r24
     ba4:	99 1f       	adc	r25, r25
     ba6:	0a 94       	dec	r0
     ba8:	e2 f7       	brpl	.-8      	; 0xba2 <__stack+0x343>
     baa:	80 95       	com	r24
     bac:	84 23       	and	r24, r20
     bae:	8c 93       	st	X, r24
     bb0:	7d c1       	rjmp	.+762    	; 0xeac <__stack+0x64d>
				break;
			} //end of the "switch case on pin modes"
			break;
			/*****************************************************/
			case 2: // 2 = PORTC
				switch(Copy_u8SwPinMODE) //switch case on pin modes
     bb2:	8c 81       	ldd	r24, Y+4	; 0x04
     bb4:	28 2f       	mov	r18, r24
     bb6:	30 e0       	ldi	r19, 0x00	; 0
     bb8:	38 87       	std	Y+8, r19	; 0x08
     bba:	2f 83       	std	Y+7, r18	; 0x07
     bbc:	8f 81       	ldd	r24, Y+7	; 0x07
     bbe:	98 85       	ldd	r25, Y+8	; 0x08
     bc0:	82 30       	cpi	r24, 0x02	; 2
     bc2:	91 05       	cpc	r25, r1
     bc4:	09 f4       	brne	.+2      	; 0xbc8 <__stack+0x369>
     bc6:	3f c0       	rjmp	.+126    	; 0xc46 <__stack+0x3e7>
     bc8:	2f 81       	ldd	r18, Y+7	; 0x07
     bca:	38 85       	ldd	r19, Y+8	; 0x08
     bcc:	23 30       	cpi	r18, 0x03	; 3
     bce:	31 05       	cpc	r19, r1
     bd0:	34 f4       	brge	.+12     	; 0xbde <__stack+0x37f>
     bd2:	8f 81       	ldd	r24, Y+7	; 0x07
     bd4:	98 85       	ldd	r25, Y+8	; 0x08
     bd6:	81 30       	cpi	r24, 0x01	; 1
     bd8:	91 05       	cpc	r25, r1
     bda:	71 f0       	breq	.+28     	; 0xbf8 <__stack+0x399>
     bdc:	67 c1       	rjmp	.+718    	; 0xeac <__stack+0x64d>
     bde:	2f 81       	ldd	r18, Y+7	; 0x07
     be0:	38 85       	ldd	r19, Y+8	; 0x08
     be2:	23 30       	cpi	r18, 0x03	; 3
     be4:	31 05       	cpc	r19, r1
     be6:	09 f4       	brne	.+2      	; 0xbea <__stack+0x38b>
     be8:	54 c0       	rjmp	.+168    	; 0xc92 <__stack+0x433>
     bea:	8f 81       	ldd	r24, Y+7	; 0x07
     bec:	98 85       	ldd	r25, Y+8	; 0x08
     bee:	84 30       	cpi	r24, 0x04	; 4
     bf0:	91 05       	cpc	r25, r1
     bf2:	09 f4       	brne	.+2      	; 0xbf6 <__stack+0x397>
     bf4:	76 c0       	rjmp	.+236    	; 0xce2 <__stack+0x483>
     bf6:	5a c1       	rjmp	.+692    	; 0xeac <__stack+0x64d>
				case 1:
					/* In PORT_u8OUTPUT_LOW mode :
					 * 				Set the pin direction as OUTPUT
					 * 				Set the pin value as LOW
					 */
					CLR_BIT(_PORTA,Loc_u8PinId); //set the pin value in port A as LOW
     bf8:	ab e3       	ldi	r26, 0x3B	; 59
     bfa:	b0 e0       	ldi	r27, 0x00	; 0
     bfc:	eb e3       	ldi	r30, 0x3B	; 59
     bfe:	f0 e0       	ldi	r31, 0x00	; 0
     c00:	80 81       	ld	r24, Z
     c02:	48 2f       	mov	r20, r24
     c04:	89 81       	ldd	r24, Y+1	; 0x01
     c06:	28 2f       	mov	r18, r24
     c08:	30 e0       	ldi	r19, 0x00	; 0
     c0a:	81 e0       	ldi	r24, 0x01	; 1
     c0c:	90 e0       	ldi	r25, 0x00	; 0
     c0e:	02 c0       	rjmp	.+4      	; 0xc14 <__stack+0x3b5>
     c10:	88 0f       	add	r24, r24
     c12:	99 1f       	adc	r25, r25
     c14:	2a 95       	dec	r18
     c16:	e2 f7       	brpl	.-8      	; 0xc10 <__stack+0x3b1>
     c18:	80 95       	com	r24
     c1a:	84 23       	and	r24, r20
     c1c:	8c 93       	st	X, r24
					SET_BIT(_DDRA,Loc_u8PinId); //set the pin direction in port A as OUTPUT
     c1e:	aa e3       	ldi	r26, 0x3A	; 58
     c20:	b0 e0       	ldi	r27, 0x00	; 0
     c22:	ea e3       	ldi	r30, 0x3A	; 58
     c24:	f0 e0       	ldi	r31, 0x00	; 0
     c26:	80 81       	ld	r24, Z
     c28:	48 2f       	mov	r20, r24
     c2a:	89 81       	ldd	r24, Y+1	; 0x01
     c2c:	28 2f       	mov	r18, r24
     c2e:	30 e0       	ldi	r19, 0x00	; 0
     c30:	81 e0       	ldi	r24, 0x01	; 1
     c32:	90 e0       	ldi	r25, 0x00	; 0
     c34:	02 2e       	mov	r0, r18
     c36:	02 c0       	rjmp	.+4      	; 0xc3c <__stack+0x3dd>
     c38:	88 0f       	add	r24, r24
     c3a:	99 1f       	adc	r25, r25
     c3c:	0a 94       	dec	r0
     c3e:	e2 f7       	brpl	.-8      	; 0xc38 <__stack+0x3d9>
     c40:	84 2b       	or	r24, r20
     c42:	8c 93       	st	X, r24
     c44:	33 c1       	rjmp	.+614    	; 0xeac <__stack+0x64d>

					/* In PORT_u8OUTPUT_HIGH mode :
					 * 				Set the pin direction as OUTPUT
					 * 				Set the pin value as HIGH
					 */
					SET_BIT(_PORTA,Loc_u8PinId); //set the pin value in port A as LOW
     c46:	ab e3       	ldi	r26, 0x3B	; 59
     c48:	b0 e0       	ldi	r27, 0x00	; 0
     c4a:	eb e3       	ldi	r30, 0x3B	; 59
     c4c:	f0 e0       	ldi	r31, 0x00	; 0
     c4e:	80 81       	ld	r24, Z
     c50:	48 2f       	mov	r20, r24
     c52:	89 81       	ldd	r24, Y+1	; 0x01
     c54:	28 2f       	mov	r18, r24
     c56:	30 e0       	ldi	r19, 0x00	; 0
     c58:	81 e0       	ldi	r24, 0x01	; 1
     c5a:	90 e0       	ldi	r25, 0x00	; 0
     c5c:	02 c0       	rjmp	.+4      	; 0xc62 <__stack+0x403>
     c5e:	88 0f       	add	r24, r24
     c60:	99 1f       	adc	r25, r25
     c62:	2a 95       	dec	r18
     c64:	e2 f7       	brpl	.-8      	; 0xc5e <__stack+0x3ff>
     c66:	84 2b       	or	r24, r20
     c68:	8c 93       	st	X, r24
					SET_BIT(_DDRA,Loc_u8PinId); //set the pin direction in port A as OUTPUT
     c6a:	aa e3       	ldi	r26, 0x3A	; 58
     c6c:	b0 e0       	ldi	r27, 0x00	; 0
     c6e:	ea e3       	ldi	r30, 0x3A	; 58
     c70:	f0 e0       	ldi	r31, 0x00	; 0
     c72:	80 81       	ld	r24, Z
     c74:	48 2f       	mov	r20, r24
     c76:	89 81       	ldd	r24, Y+1	; 0x01
     c78:	28 2f       	mov	r18, r24
     c7a:	30 e0       	ldi	r19, 0x00	; 0
     c7c:	81 e0       	ldi	r24, 0x01	; 1
     c7e:	90 e0       	ldi	r25, 0x00	; 0
     c80:	02 2e       	mov	r0, r18
     c82:	02 c0       	rjmp	.+4      	; 0xc88 <__stack+0x429>
     c84:	88 0f       	add	r24, r24
     c86:	99 1f       	adc	r25, r25
     c88:	0a 94       	dec	r0
     c8a:	e2 f7       	brpl	.-8      	; 0xc84 <__stack+0x425>
     c8c:	84 2b       	or	r24, r20
     c8e:	8c 93       	st	X, r24
     c90:	0d c1       	rjmp	.+538    	; 0xeac <__stack+0x64d>
				case 3:
					/* In PORT_u8INPUT_HIGH_IMP mode :
					 * 				Set the pin direction as INPUT
					 * 				Deactivate the pull up resistance
					 */
					CLR_BIT(_PORTA,Loc_u8PinId); //set the pin value in port A as LOW
     c92:	ab e3       	ldi	r26, 0x3B	; 59
     c94:	b0 e0       	ldi	r27, 0x00	; 0
     c96:	eb e3       	ldi	r30, 0x3B	; 59
     c98:	f0 e0       	ldi	r31, 0x00	; 0
     c9a:	80 81       	ld	r24, Z
     c9c:	48 2f       	mov	r20, r24
     c9e:	89 81       	ldd	r24, Y+1	; 0x01
     ca0:	28 2f       	mov	r18, r24
     ca2:	30 e0       	ldi	r19, 0x00	; 0
     ca4:	81 e0       	ldi	r24, 0x01	; 1
     ca6:	90 e0       	ldi	r25, 0x00	; 0
     ca8:	02 c0       	rjmp	.+4      	; 0xcae <__stack+0x44f>
     caa:	88 0f       	add	r24, r24
     cac:	99 1f       	adc	r25, r25
     cae:	2a 95       	dec	r18
     cb0:	e2 f7       	brpl	.-8      	; 0xcaa <__stack+0x44b>
     cb2:	80 95       	com	r24
     cb4:	84 23       	and	r24, r20
     cb6:	8c 93       	st	X, r24
					CLR_BIT(_DDRA,Loc_u8PinId); //set the pin direction in port A as INPUT
     cb8:	aa e3       	ldi	r26, 0x3A	; 58
     cba:	b0 e0       	ldi	r27, 0x00	; 0
     cbc:	ea e3       	ldi	r30, 0x3A	; 58
     cbe:	f0 e0       	ldi	r31, 0x00	; 0
     cc0:	80 81       	ld	r24, Z
     cc2:	48 2f       	mov	r20, r24
     cc4:	89 81       	ldd	r24, Y+1	; 0x01
     cc6:	28 2f       	mov	r18, r24
     cc8:	30 e0       	ldi	r19, 0x00	; 0
     cca:	81 e0       	ldi	r24, 0x01	; 1
     ccc:	90 e0       	ldi	r25, 0x00	; 0
     cce:	02 2e       	mov	r0, r18
     cd0:	02 c0       	rjmp	.+4      	; 0xcd6 <__stack+0x477>
     cd2:	88 0f       	add	r24, r24
     cd4:	99 1f       	adc	r25, r25
     cd6:	0a 94       	dec	r0
     cd8:	e2 f7       	brpl	.-8      	; 0xcd2 <__stack+0x473>
     cda:	80 95       	com	r24
     cdc:	84 23       	and	r24, r20
     cde:	8c 93       	st	X, r24
     ce0:	e5 c0       	rjmp	.+458    	; 0xeac <__stack+0x64d>
				case 4:
					/* In PORT_u8INPUT_PULL_UP mode :
					 * 				Set the pin direction as INPUT
					 * 				Activate the pull up resistance
					 */
					SET_BIT(_PORTA,Loc_u8PinId); //set the pin value in port A as LOW
     ce2:	ab e3       	ldi	r26, 0x3B	; 59
     ce4:	b0 e0       	ldi	r27, 0x00	; 0
     ce6:	eb e3       	ldi	r30, 0x3B	; 59
     ce8:	f0 e0       	ldi	r31, 0x00	; 0
     cea:	80 81       	ld	r24, Z
     cec:	48 2f       	mov	r20, r24
     cee:	89 81       	ldd	r24, Y+1	; 0x01
     cf0:	28 2f       	mov	r18, r24
     cf2:	30 e0       	ldi	r19, 0x00	; 0
     cf4:	81 e0       	ldi	r24, 0x01	; 1
     cf6:	90 e0       	ldi	r25, 0x00	; 0
     cf8:	02 c0       	rjmp	.+4      	; 0xcfe <__stack+0x49f>
     cfa:	88 0f       	add	r24, r24
     cfc:	99 1f       	adc	r25, r25
     cfe:	2a 95       	dec	r18
     d00:	e2 f7       	brpl	.-8      	; 0xcfa <__stack+0x49b>
     d02:	84 2b       	or	r24, r20
     d04:	8c 93       	st	X, r24
					CLR_BIT(_DDRA,Loc_u8PinId); //set the pin direction in port A as INPUT
     d06:	aa e3       	ldi	r26, 0x3A	; 58
     d08:	b0 e0       	ldi	r27, 0x00	; 0
     d0a:	ea e3       	ldi	r30, 0x3A	; 58
     d0c:	f0 e0       	ldi	r31, 0x00	; 0
     d0e:	80 81       	ld	r24, Z
     d10:	48 2f       	mov	r20, r24
     d12:	89 81       	ldd	r24, Y+1	; 0x01
     d14:	28 2f       	mov	r18, r24
     d16:	30 e0       	ldi	r19, 0x00	; 0
     d18:	81 e0       	ldi	r24, 0x01	; 1
     d1a:	90 e0       	ldi	r25, 0x00	; 0
     d1c:	02 2e       	mov	r0, r18
     d1e:	02 c0       	rjmp	.+4      	; 0xd24 <__stack+0x4c5>
     d20:	88 0f       	add	r24, r24
     d22:	99 1f       	adc	r25, r25
     d24:	0a 94       	dec	r0
     d26:	e2 f7       	brpl	.-8      	; 0xd20 <__stack+0x4c1>
     d28:	80 95       	com	r24
     d2a:	84 23       	and	r24, r20
     d2c:	8c 93       	st	X, r24
     d2e:	be c0       	rjmp	.+380    	; 0xeac <__stack+0x64d>
					break;
				} //end of the "switch case on pin modes"
				break;
				/*****************************************************/
				case 3: // 3 = PORTD
					switch(Copy_u8SwPinMODE) //switch case on pin modes
     d30:	8c 81       	ldd	r24, Y+4	; 0x04
     d32:	28 2f       	mov	r18, r24
     d34:	30 e0       	ldi	r19, 0x00	; 0
     d36:	3e 83       	std	Y+6, r19	; 0x06
     d38:	2d 83       	std	Y+5, r18	; 0x05
     d3a:	8d 81       	ldd	r24, Y+5	; 0x05
     d3c:	9e 81       	ldd	r25, Y+6	; 0x06
     d3e:	82 30       	cpi	r24, 0x02	; 2
     d40:	91 05       	cpc	r25, r1
     d42:	09 f4       	brne	.+2      	; 0xd46 <__stack+0x4e7>
     d44:	3f c0       	rjmp	.+126    	; 0xdc4 <__stack+0x565>
     d46:	2d 81       	ldd	r18, Y+5	; 0x05
     d48:	3e 81       	ldd	r19, Y+6	; 0x06
     d4a:	23 30       	cpi	r18, 0x03	; 3
     d4c:	31 05       	cpc	r19, r1
     d4e:	34 f4       	brge	.+12     	; 0xd5c <__stack+0x4fd>
     d50:	8d 81       	ldd	r24, Y+5	; 0x05
     d52:	9e 81       	ldd	r25, Y+6	; 0x06
     d54:	81 30       	cpi	r24, 0x01	; 1
     d56:	91 05       	cpc	r25, r1
     d58:	71 f0       	breq	.+28     	; 0xd76 <__stack+0x517>
     d5a:	a8 c0       	rjmp	.+336    	; 0xeac <__stack+0x64d>
     d5c:	2d 81       	ldd	r18, Y+5	; 0x05
     d5e:	3e 81       	ldd	r19, Y+6	; 0x06
     d60:	23 30       	cpi	r18, 0x03	; 3
     d62:	31 05       	cpc	r19, r1
     d64:	09 f4       	brne	.+2      	; 0xd68 <__stack+0x509>
     d66:	54 c0       	rjmp	.+168    	; 0xe10 <__stack+0x5b1>
     d68:	8d 81       	ldd	r24, Y+5	; 0x05
     d6a:	9e 81       	ldd	r25, Y+6	; 0x06
     d6c:	84 30       	cpi	r24, 0x04	; 4
     d6e:	91 05       	cpc	r25, r1
     d70:	09 f4       	brne	.+2      	; 0xd74 <__stack+0x515>
     d72:	76 c0       	rjmp	.+236    	; 0xe60 <__stack+0x601>
     d74:	9b c0       	rjmp	.+310    	; 0xeac <__stack+0x64d>
					case 1:
						/* In PORT_u8OUTPUT_LOW mode :
						 * 				Set the pin direction as OUTPUT
						 * 				Set the pin value as LOW
						 */
						CLR_BIT(_PORTA,Loc_u8PinId); //set the pin value in port A as LOW
     d76:	ab e3       	ldi	r26, 0x3B	; 59
     d78:	b0 e0       	ldi	r27, 0x00	; 0
     d7a:	eb e3       	ldi	r30, 0x3B	; 59
     d7c:	f0 e0       	ldi	r31, 0x00	; 0
     d7e:	80 81       	ld	r24, Z
     d80:	48 2f       	mov	r20, r24
     d82:	89 81       	ldd	r24, Y+1	; 0x01
     d84:	28 2f       	mov	r18, r24
     d86:	30 e0       	ldi	r19, 0x00	; 0
     d88:	81 e0       	ldi	r24, 0x01	; 1
     d8a:	90 e0       	ldi	r25, 0x00	; 0
     d8c:	02 c0       	rjmp	.+4      	; 0xd92 <__stack+0x533>
     d8e:	88 0f       	add	r24, r24
     d90:	99 1f       	adc	r25, r25
     d92:	2a 95       	dec	r18
     d94:	e2 f7       	brpl	.-8      	; 0xd8e <__stack+0x52f>
     d96:	80 95       	com	r24
     d98:	84 23       	and	r24, r20
     d9a:	8c 93       	st	X, r24
						SET_BIT(_DDRA,Loc_u8PinId); //set the pin direction in port A as OUTPUT
     d9c:	aa e3       	ldi	r26, 0x3A	; 58
     d9e:	b0 e0       	ldi	r27, 0x00	; 0
     da0:	ea e3       	ldi	r30, 0x3A	; 58
     da2:	f0 e0       	ldi	r31, 0x00	; 0
     da4:	80 81       	ld	r24, Z
     da6:	48 2f       	mov	r20, r24
     da8:	89 81       	ldd	r24, Y+1	; 0x01
     daa:	28 2f       	mov	r18, r24
     dac:	30 e0       	ldi	r19, 0x00	; 0
     dae:	81 e0       	ldi	r24, 0x01	; 1
     db0:	90 e0       	ldi	r25, 0x00	; 0
     db2:	02 2e       	mov	r0, r18
     db4:	02 c0       	rjmp	.+4      	; 0xdba <__stack+0x55b>
     db6:	88 0f       	add	r24, r24
     db8:	99 1f       	adc	r25, r25
     dba:	0a 94       	dec	r0
     dbc:	e2 f7       	brpl	.-8      	; 0xdb6 <__stack+0x557>
     dbe:	84 2b       	or	r24, r20
     dc0:	8c 93       	st	X, r24
     dc2:	74 c0       	rjmp	.+232    	; 0xeac <__stack+0x64d>
					case 2:
						/* In PORT_u8OUTPUT_HIGH mode :
						 * 				Set the pin direction as OUTPUT
						 * 				Set the pin value as HIGH
						 */
						SET_BIT(_PORTA,Loc_u8PinId); //set the pin value in port A as LOW
     dc4:	ab e3       	ldi	r26, 0x3B	; 59
     dc6:	b0 e0       	ldi	r27, 0x00	; 0
     dc8:	eb e3       	ldi	r30, 0x3B	; 59
     dca:	f0 e0       	ldi	r31, 0x00	; 0
     dcc:	80 81       	ld	r24, Z
     dce:	48 2f       	mov	r20, r24
     dd0:	89 81       	ldd	r24, Y+1	; 0x01
     dd2:	28 2f       	mov	r18, r24
     dd4:	30 e0       	ldi	r19, 0x00	; 0
     dd6:	81 e0       	ldi	r24, 0x01	; 1
     dd8:	90 e0       	ldi	r25, 0x00	; 0
     dda:	02 c0       	rjmp	.+4      	; 0xde0 <__stack+0x581>
     ddc:	88 0f       	add	r24, r24
     dde:	99 1f       	adc	r25, r25
     de0:	2a 95       	dec	r18
     de2:	e2 f7       	brpl	.-8      	; 0xddc <__stack+0x57d>
     de4:	84 2b       	or	r24, r20
     de6:	8c 93       	st	X, r24
						SET_BIT(_DDRA,Loc_u8PinId); //set the pin direction in port A as OUTPUT
     de8:	aa e3       	ldi	r26, 0x3A	; 58
     dea:	b0 e0       	ldi	r27, 0x00	; 0
     dec:	ea e3       	ldi	r30, 0x3A	; 58
     dee:	f0 e0       	ldi	r31, 0x00	; 0
     df0:	80 81       	ld	r24, Z
     df2:	48 2f       	mov	r20, r24
     df4:	89 81       	ldd	r24, Y+1	; 0x01
     df6:	28 2f       	mov	r18, r24
     df8:	30 e0       	ldi	r19, 0x00	; 0
     dfa:	81 e0       	ldi	r24, 0x01	; 1
     dfc:	90 e0       	ldi	r25, 0x00	; 0
     dfe:	02 2e       	mov	r0, r18
     e00:	02 c0       	rjmp	.+4      	; 0xe06 <__stack+0x5a7>
     e02:	88 0f       	add	r24, r24
     e04:	99 1f       	adc	r25, r25
     e06:	0a 94       	dec	r0
     e08:	e2 f7       	brpl	.-8      	; 0xe02 <__stack+0x5a3>
     e0a:	84 2b       	or	r24, r20
     e0c:	8c 93       	st	X, r24
     e0e:	4e c0       	rjmp	.+156    	; 0xeac <__stack+0x64d>
					case 3:
						/* In PORT_u8INPUT_HIGH_IMP mode :
						 * 				Set the pin direction as INPUT
						 * 				Deactivate the pull up resistance
						 */
						CLR_BIT(_PORTA,Loc_u8PinId); //set the pin value in port A as LOW
     e10:	ab e3       	ldi	r26, 0x3B	; 59
     e12:	b0 e0       	ldi	r27, 0x00	; 0
     e14:	eb e3       	ldi	r30, 0x3B	; 59
     e16:	f0 e0       	ldi	r31, 0x00	; 0
     e18:	80 81       	ld	r24, Z
     e1a:	48 2f       	mov	r20, r24
     e1c:	89 81       	ldd	r24, Y+1	; 0x01
     e1e:	28 2f       	mov	r18, r24
     e20:	30 e0       	ldi	r19, 0x00	; 0
     e22:	81 e0       	ldi	r24, 0x01	; 1
     e24:	90 e0       	ldi	r25, 0x00	; 0
     e26:	02 c0       	rjmp	.+4      	; 0xe2c <__stack+0x5cd>
     e28:	88 0f       	add	r24, r24
     e2a:	99 1f       	adc	r25, r25
     e2c:	2a 95       	dec	r18
     e2e:	e2 f7       	brpl	.-8      	; 0xe28 <__stack+0x5c9>
     e30:	80 95       	com	r24
     e32:	84 23       	and	r24, r20
     e34:	8c 93       	st	X, r24
						CLR_BIT(_DDRA,Loc_u8PinId); //set the pin direction in port A as INPUT
     e36:	aa e3       	ldi	r26, 0x3A	; 58
     e38:	b0 e0       	ldi	r27, 0x00	; 0
     e3a:	ea e3       	ldi	r30, 0x3A	; 58
     e3c:	f0 e0       	ldi	r31, 0x00	; 0
     e3e:	80 81       	ld	r24, Z
     e40:	48 2f       	mov	r20, r24
     e42:	89 81       	ldd	r24, Y+1	; 0x01
     e44:	28 2f       	mov	r18, r24
     e46:	30 e0       	ldi	r19, 0x00	; 0
     e48:	81 e0       	ldi	r24, 0x01	; 1
     e4a:	90 e0       	ldi	r25, 0x00	; 0
     e4c:	02 2e       	mov	r0, r18
     e4e:	02 c0       	rjmp	.+4      	; 0xe54 <__stack+0x5f5>
     e50:	88 0f       	add	r24, r24
     e52:	99 1f       	adc	r25, r25
     e54:	0a 94       	dec	r0
     e56:	e2 f7       	brpl	.-8      	; 0xe50 <__stack+0x5f1>
     e58:	80 95       	com	r24
     e5a:	84 23       	and	r24, r20
     e5c:	8c 93       	st	X, r24
     e5e:	26 c0       	rjmp	.+76     	; 0xeac <__stack+0x64d>
					case 4:
						/* In PORT_u8INPUT_PULL_UP mode :
						 * 				Set the pin direction as INPUT
						 * 				Activate the pull up resistance
						 */
						SET_BIT(_PORTA,Loc_u8PinId); //set the pin value in port A as LOW
     e60:	ab e3       	ldi	r26, 0x3B	; 59
     e62:	b0 e0       	ldi	r27, 0x00	; 0
     e64:	eb e3       	ldi	r30, 0x3B	; 59
     e66:	f0 e0       	ldi	r31, 0x00	; 0
     e68:	80 81       	ld	r24, Z
     e6a:	48 2f       	mov	r20, r24
     e6c:	89 81       	ldd	r24, Y+1	; 0x01
     e6e:	28 2f       	mov	r18, r24
     e70:	30 e0       	ldi	r19, 0x00	; 0
     e72:	81 e0       	ldi	r24, 0x01	; 1
     e74:	90 e0       	ldi	r25, 0x00	; 0
     e76:	02 c0       	rjmp	.+4      	; 0xe7c <__stack+0x61d>
     e78:	88 0f       	add	r24, r24
     e7a:	99 1f       	adc	r25, r25
     e7c:	2a 95       	dec	r18
     e7e:	e2 f7       	brpl	.-8      	; 0xe78 <__stack+0x619>
     e80:	84 2b       	or	r24, r20
     e82:	8c 93       	st	X, r24
						CLR_BIT(_DDRA,Loc_u8PinId); //set the pin direction in port A as INPUT
     e84:	aa e3       	ldi	r26, 0x3A	; 58
     e86:	b0 e0       	ldi	r27, 0x00	; 0
     e88:	ea e3       	ldi	r30, 0x3A	; 58
     e8a:	f0 e0       	ldi	r31, 0x00	; 0
     e8c:	80 81       	ld	r24, Z
     e8e:	48 2f       	mov	r20, r24
     e90:	89 81       	ldd	r24, Y+1	; 0x01
     e92:	28 2f       	mov	r18, r24
     e94:	30 e0       	ldi	r19, 0x00	; 0
     e96:	81 e0       	ldi	r24, 0x01	; 1
     e98:	90 e0       	ldi	r25, 0x00	; 0
     e9a:	02 2e       	mov	r0, r18
     e9c:	02 c0       	rjmp	.+4      	; 0xea2 <__stack+0x643>
     e9e:	88 0f       	add	r24, r24
     ea0:	99 1f       	adc	r25, r25
     ea2:	0a 94       	dec	r0
     ea4:	e2 f7       	brpl	.-8      	; 0xe9e <__stack+0x63f>
     ea6:	80 95       	com	r24
     ea8:	84 23       	and	r24, r20
     eaa:	8c 93       	st	X, r24
					break;
					default:
						//DO NOTHING
						break;
	} //end of the "switch case on port and pins"
}
     eac:	2e 96       	adiw	r28, 0x0e	; 14
     eae:	0f b6       	in	r0, 0x3f	; 63
     eb0:	f8 94       	cli
     eb2:	de bf       	out	0x3e, r29	; 62
     eb4:	0f be       	out	0x3f, r0	; 63
     eb6:	cd bf       	out	0x3d, r28	; 61
     eb8:	cf 91       	pop	r28
     eba:	df 91       	pop	r29
     ebc:	08 95       	ret

00000ebe <Port_vidSetPinDir>:
 *  Input/Output Parameter:
 * 						-Not Applicable
 * **************************************************************************************
 */
void Port_vidSetPinDir(u8 Copy_u8SwPinId,u8 Copy_u8SwPinDir)
{
     ebe:	df 93       	push	r29
     ec0:	cf 93       	push	r28
     ec2:	00 d0       	rcall	.+0      	; 0xec4 <Port_vidSetPinDir+0x6>
     ec4:	00 d0       	rcall	.+0      	; 0xec6 <Port_vidSetPinDir+0x8>
     ec6:	00 d0       	rcall	.+0      	; 0xec8 <Port_vidSetPinDir+0xa>
     ec8:	cd b7       	in	r28, 0x3d	; 61
     eca:	de b7       	in	r29, 0x3e	; 62
     ecc:	8b 83       	std	Y+3, r24	; 0x03
     ece:	6c 83       	std	Y+4, r22	; 0x04
	u8 Loc_u8PortId;//variable for Port Id
	u8 Loc_u8PinId;//variable for Pin Id

	Loc_u8PortId = Copy_u8SwPinId / (u8)8;//To get the port id 0,1,2,3
     ed0:	8b 81       	ldd	r24, Y+3	; 0x03
     ed2:	86 95       	lsr	r24
     ed4:	86 95       	lsr	r24
     ed6:	86 95       	lsr	r24
     ed8:	8a 83       	std	Y+2, r24	; 0x02
	Loc_u8PinId =  Copy_u8SwPinId % (u8)8;//To get the pin id 0 ->> 31
     eda:	8b 81       	ldd	r24, Y+3	; 0x03
     edc:	87 70       	andi	r24, 0x07	; 7
     ede:	89 83       	std	Y+1, r24	; 0x01

	switch(Loc_u8PortId)
     ee0:	8a 81       	ldd	r24, Y+2	; 0x02
     ee2:	28 2f       	mov	r18, r24
     ee4:	30 e0       	ldi	r19, 0x00	; 0
     ee6:	3e 83       	std	Y+6, r19	; 0x06
     ee8:	2d 83       	std	Y+5, r18	; 0x05
     eea:	8d 81       	ldd	r24, Y+5	; 0x05
     eec:	9e 81       	ldd	r25, Y+6	; 0x06
     eee:	81 30       	cpi	r24, 0x01	; 1
     ef0:	91 05       	cpc	r25, r1
     ef2:	09 f4       	brne	.+2      	; 0xef6 <Port_vidSetPinDir+0x38>
     ef4:	43 c0       	rjmp	.+134    	; 0xf7c <Port_vidSetPinDir+0xbe>
     ef6:	2d 81       	ldd	r18, Y+5	; 0x05
     ef8:	3e 81       	ldd	r19, Y+6	; 0x06
     efa:	22 30       	cpi	r18, 0x02	; 2
     efc:	31 05       	cpc	r19, r1
     efe:	2c f4       	brge	.+10     	; 0xf0a <Port_vidSetPinDir+0x4c>
     f00:	8d 81       	ldd	r24, Y+5	; 0x05
     f02:	9e 81       	ldd	r25, Y+6	; 0x06
     f04:	00 97       	sbiw	r24, 0x00	; 0
     f06:	71 f0       	breq	.+28     	; 0xf24 <Port_vidSetPinDir+0x66>
     f08:	bc c0       	rjmp	.+376    	; 0x1082 <Port_vidSetPinDir+0x1c4>
     f0a:	2d 81       	ldd	r18, Y+5	; 0x05
     f0c:	3e 81       	ldd	r19, Y+6	; 0x06
     f0e:	22 30       	cpi	r18, 0x02	; 2
     f10:	31 05       	cpc	r19, r1
     f12:	09 f4       	brne	.+2      	; 0xf16 <Port_vidSetPinDir+0x58>
     f14:	5f c0       	rjmp	.+190    	; 0xfd4 <Port_vidSetPinDir+0x116>
     f16:	8d 81       	ldd	r24, Y+5	; 0x05
     f18:	9e 81       	ldd	r25, Y+6	; 0x06
     f1a:	83 30       	cpi	r24, 0x03	; 3
     f1c:	91 05       	cpc	r25, r1
     f1e:	09 f4       	brne	.+2      	; 0xf22 <Port_vidSetPinDir+0x64>
     f20:	85 c0       	rjmp	.+266    	; 0x102c <Port_vidSetPinDir+0x16e>
     f22:	af c0       	rjmp	.+350    	; 0x1082 <Port_vidSetPinDir+0x1c4>
	{
	case 0: // 0 = PORTA
		if(Copy_u8SwPinDir == PORT_u8OUTPUT)
     f24:	8c 81       	ldd	r24, Y+4	; 0x04
     f26:	81 30       	cpi	r24, 0x01	; 1
     f28:	a1 f4       	brne	.+40     	; 0xf52 <Port_vidSetPinDir+0x94>
		{
			SET_BIT(_DDRA,Loc_u8PinId); //set the pin in port A as Output
     f2a:	aa e3       	ldi	r26, 0x3A	; 58
     f2c:	b0 e0       	ldi	r27, 0x00	; 0
     f2e:	ea e3       	ldi	r30, 0x3A	; 58
     f30:	f0 e0       	ldi	r31, 0x00	; 0
     f32:	80 81       	ld	r24, Z
     f34:	48 2f       	mov	r20, r24
     f36:	89 81       	ldd	r24, Y+1	; 0x01
     f38:	28 2f       	mov	r18, r24
     f3a:	30 e0       	ldi	r19, 0x00	; 0
     f3c:	81 e0       	ldi	r24, 0x01	; 1
     f3e:	90 e0       	ldi	r25, 0x00	; 0
     f40:	02 2e       	mov	r0, r18
     f42:	02 c0       	rjmp	.+4      	; 0xf48 <Port_vidSetPinDir+0x8a>
     f44:	88 0f       	add	r24, r24
     f46:	99 1f       	adc	r25, r25
     f48:	0a 94       	dec	r0
     f4a:	e2 f7       	brpl	.-8      	; 0xf44 <Port_vidSetPinDir+0x86>
     f4c:	84 2b       	or	r24, r20
     f4e:	8c 93       	st	X, r24
     f50:	98 c0       	rjmp	.+304    	; 0x1082 <Port_vidSetPinDir+0x1c4>
		}
		else
		{
			CLR_BIT(_DDRA,Loc_u8PinId); //set the pin in port A as Input
     f52:	aa e3       	ldi	r26, 0x3A	; 58
     f54:	b0 e0       	ldi	r27, 0x00	; 0
     f56:	ea e3       	ldi	r30, 0x3A	; 58
     f58:	f0 e0       	ldi	r31, 0x00	; 0
     f5a:	80 81       	ld	r24, Z
     f5c:	48 2f       	mov	r20, r24
     f5e:	89 81       	ldd	r24, Y+1	; 0x01
     f60:	28 2f       	mov	r18, r24
     f62:	30 e0       	ldi	r19, 0x00	; 0
     f64:	81 e0       	ldi	r24, 0x01	; 1
     f66:	90 e0       	ldi	r25, 0x00	; 0
     f68:	02 2e       	mov	r0, r18
     f6a:	02 c0       	rjmp	.+4      	; 0xf70 <Port_vidSetPinDir+0xb2>
     f6c:	88 0f       	add	r24, r24
     f6e:	99 1f       	adc	r25, r25
     f70:	0a 94       	dec	r0
     f72:	e2 f7       	brpl	.-8      	; 0xf6c <Port_vidSetPinDir+0xae>
     f74:	80 95       	com	r24
     f76:	84 23       	and	r24, r20
     f78:	8c 93       	st	X, r24
     f7a:	83 c0       	rjmp	.+262    	; 0x1082 <Port_vidSetPinDir+0x1c4>
		}
		break;
	case 1: // 1 = PORTB
		if(Copy_u8SwPinDir == PORT_u8OUTPUT)
     f7c:	8c 81       	ldd	r24, Y+4	; 0x04
     f7e:	81 30       	cpi	r24, 0x01	; 1
     f80:	a1 f4       	brne	.+40     	; 0xfaa <Port_vidSetPinDir+0xec>
		{
			SET_BIT(_DDRB,Loc_u8PinId); //set the pin in port B as Output
     f82:	a7 e3       	ldi	r26, 0x37	; 55
     f84:	b0 e0       	ldi	r27, 0x00	; 0
     f86:	e7 e3       	ldi	r30, 0x37	; 55
     f88:	f0 e0       	ldi	r31, 0x00	; 0
     f8a:	80 81       	ld	r24, Z
     f8c:	48 2f       	mov	r20, r24
     f8e:	89 81       	ldd	r24, Y+1	; 0x01
     f90:	28 2f       	mov	r18, r24
     f92:	30 e0       	ldi	r19, 0x00	; 0
     f94:	81 e0       	ldi	r24, 0x01	; 1
     f96:	90 e0       	ldi	r25, 0x00	; 0
     f98:	02 2e       	mov	r0, r18
     f9a:	02 c0       	rjmp	.+4      	; 0xfa0 <Port_vidSetPinDir+0xe2>
     f9c:	88 0f       	add	r24, r24
     f9e:	99 1f       	adc	r25, r25
     fa0:	0a 94       	dec	r0
     fa2:	e2 f7       	brpl	.-8      	; 0xf9c <Port_vidSetPinDir+0xde>
     fa4:	84 2b       	or	r24, r20
     fa6:	8c 93       	st	X, r24
     fa8:	6c c0       	rjmp	.+216    	; 0x1082 <Port_vidSetPinDir+0x1c4>
		}
		else
		{
			CLR_BIT(_DDRB,Loc_u8PinId); //set the pin in port A as Input
     faa:	a7 e3       	ldi	r26, 0x37	; 55
     fac:	b0 e0       	ldi	r27, 0x00	; 0
     fae:	e7 e3       	ldi	r30, 0x37	; 55
     fb0:	f0 e0       	ldi	r31, 0x00	; 0
     fb2:	80 81       	ld	r24, Z
     fb4:	48 2f       	mov	r20, r24
     fb6:	89 81       	ldd	r24, Y+1	; 0x01
     fb8:	28 2f       	mov	r18, r24
     fba:	30 e0       	ldi	r19, 0x00	; 0
     fbc:	81 e0       	ldi	r24, 0x01	; 1
     fbe:	90 e0       	ldi	r25, 0x00	; 0
     fc0:	02 2e       	mov	r0, r18
     fc2:	02 c0       	rjmp	.+4      	; 0xfc8 <Port_vidSetPinDir+0x10a>
     fc4:	88 0f       	add	r24, r24
     fc6:	99 1f       	adc	r25, r25
     fc8:	0a 94       	dec	r0
     fca:	e2 f7       	brpl	.-8      	; 0xfc4 <Port_vidSetPinDir+0x106>
     fcc:	80 95       	com	r24
     fce:	84 23       	and	r24, r20
     fd0:	8c 93       	st	X, r24
     fd2:	57 c0       	rjmp	.+174    	; 0x1082 <Port_vidSetPinDir+0x1c4>
		}
		break;
	case 2: // 2 = PORTC
		if(Copy_u8SwPinDir == PORT_u8OUTPUT)
     fd4:	8c 81       	ldd	r24, Y+4	; 0x04
     fd6:	81 30       	cpi	r24, 0x01	; 1
     fd8:	a1 f4       	brne	.+40     	; 0x1002 <Port_vidSetPinDir+0x144>
		{
			SET_BIT(_DDRC,Loc_u8PinId); //set the pin in port A as Output
     fda:	a4 e3       	ldi	r26, 0x34	; 52
     fdc:	b0 e0       	ldi	r27, 0x00	; 0
     fde:	e4 e3       	ldi	r30, 0x34	; 52
     fe0:	f0 e0       	ldi	r31, 0x00	; 0
     fe2:	80 81       	ld	r24, Z
     fe4:	48 2f       	mov	r20, r24
     fe6:	89 81       	ldd	r24, Y+1	; 0x01
     fe8:	28 2f       	mov	r18, r24
     fea:	30 e0       	ldi	r19, 0x00	; 0
     fec:	81 e0       	ldi	r24, 0x01	; 1
     fee:	90 e0       	ldi	r25, 0x00	; 0
     ff0:	02 2e       	mov	r0, r18
     ff2:	02 c0       	rjmp	.+4      	; 0xff8 <Port_vidSetPinDir+0x13a>
     ff4:	88 0f       	add	r24, r24
     ff6:	99 1f       	adc	r25, r25
     ff8:	0a 94       	dec	r0
     ffa:	e2 f7       	brpl	.-8      	; 0xff4 <Port_vidSetPinDir+0x136>
     ffc:	84 2b       	or	r24, r20
     ffe:	8c 93       	st	X, r24
    1000:	40 c0       	rjmp	.+128    	; 0x1082 <Port_vidSetPinDir+0x1c4>
		}
		else
		{
			CLR_BIT(_DDRC,Loc_u8PinId); //set the pin in port A as Input
    1002:	a4 e3       	ldi	r26, 0x34	; 52
    1004:	b0 e0       	ldi	r27, 0x00	; 0
    1006:	e4 e3       	ldi	r30, 0x34	; 52
    1008:	f0 e0       	ldi	r31, 0x00	; 0
    100a:	80 81       	ld	r24, Z
    100c:	48 2f       	mov	r20, r24
    100e:	89 81       	ldd	r24, Y+1	; 0x01
    1010:	28 2f       	mov	r18, r24
    1012:	30 e0       	ldi	r19, 0x00	; 0
    1014:	81 e0       	ldi	r24, 0x01	; 1
    1016:	90 e0       	ldi	r25, 0x00	; 0
    1018:	02 2e       	mov	r0, r18
    101a:	02 c0       	rjmp	.+4      	; 0x1020 <Port_vidSetPinDir+0x162>
    101c:	88 0f       	add	r24, r24
    101e:	99 1f       	adc	r25, r25
    1020:	0a 94       	dec	r0
    1022:	e2 f7       	brpl	.-8      	; 0x101c <Port_vidSetPinDir+0x15e>
    1024:	80 95       	com	r24
    1026:	84 23       	and	r24, r20
    1028:	8c 93       	st	X, r24
    102a:	2b c0       	rjmp	.+86     	; 0x1082 <Port_vidSetPinDir+0x1c4>
		}
		break;
	case 3: // 3 = PORTD
		if(Copy_u8SwPinDir == PORT_u8OUTPUT)
    102c:	8c 81       	ldd	r24, Y+4	; 0x04
    102e:	81 30       	cpi	r24, 0x01	; 1
    1030:	a1 f4       	brne	.+40     	; 0x105a <Port_vidSetPinDir+0x19c>
		{
			SET_BIT(_DDRD,Loc_u8PinId); //set the pin in port A as Output
    1032:	a1 e3       	ldi	r26, 0x31	; 49
    1034:	b0 e0       	ldi	r27, 0x00	; 0
    1036:	e1 e3       	ldi	r30, 0x31	; 49
    1038:	f0 e0       	ldi	r31, 0x00	; 0
    103a:	80 81       	ld	r24, Z
    103c:	48 2f       	mov	r20, r24
    103e:	89 81       	ldd	r24, Y+1	; 0x01
    1040:	28 2f       	mov	r18, r24
    1042:	30 e0       	ldi	r19, 0x00	; 0
    1044:	81 e0       	ldi	r24, 0x01	; 1
    1046:	90 e0       	ldi	r25, 0x00	; 0
    1048:	02 2e       	mov	r0, r18
    104a:	02 c0       	rjmp	.+4      	; 0x1050 <Port_vidSetPinDir+0x192>
    104c:	88 0f       	add	r24, r24
    104e:	99 1f       	adc	r25, r25
    1050:	0a 94       	dec	r0
    1052:	e2 f7       	brpl	.-8      	; 0x104c <Port_vidSetPinDir+0x18e>
    1054:	84 2b       	or	r24, r20
    1056:	8c 93       	st	X, r24
    1058:	14 c0       	rjmp	.+40     	; 0x1082 <Port_vidSetPinDir+0x1c4>
		}
		else
		{
			CLR_BIT(_DDRD,Loc_u8PinId); //set the pin in port A as Input
    105a:	a1 e3       	ldi	r26, 0x31	; 49
    105c:	b0 e0       	ldi	r27, 0x00	; 0
    105e:	e1 e3       	ldi	r30, 0x31	; 49
    1060:	f0 e0       	ldi	r31, 0x00	; 0
    1062:	80 81       	ld	r24, Z
    1064:	48 2f       	mov	r20, r24
    1066:	89 81       	ldd	r24, Y+1	; 0x01
    1068:	28 2f       	mov	r18, r24
    106a:	30 e0       	ldi	r19, 0x00	; 0
    106c:	81 e0       	ldi	r24, 0x01	; 1
    106e:	90 e0       	ldi	r25, 0x00	; 0
    1070:	02 2e       	mov	r0, r18
    1072:	02 c0       	rjmp	.+4      	; 0x1078 <Port_vidSetPinDir+0x1ba>
    1074:	88 0f       	add	r24, r24
    1076:	99 1f       	adc	r25, r25
    1078:	0a 94       	dec	r0
    107a:	e2 f7       	brpl	.-8      	; 0x1074 <Port_vidSetPinDir+0x1b6>
    107c:	80 95       	com	r24
    107e:	84 23       	and	r24, r20
    1080:	8c 93       	st	X, r24
		}
		break;
	default:
		break;
	}
}
    1082:	26 96       	adiw	r28, 0x06	; 6
    1084:	0f b6       	in	r0, 0x3f	; 63
    1086:	f8 94       	cli
    1088:	de bf       	out	0x3e, r29	; 62
    108a:	0f be       	out	0x3f, r0	; 63
    108c:	cd bf       	out	0x3d, r28	; 61
    108e:	cf 91       	pop	r28
    1090:	df 91       	pop	r29
    1092:	08 95       	ret

00001094 <Dio_vidSetPinVal>:
 * Input/Output Parameter:
 *					-Not applicable (void)
 * **************************************************************************************
 */
void Dio_vidSetPinVal(u8 Copy_u8SwPinId, u8 Copy_u8SwPinVal)
{
    1094:	df 93       	push	r29
    1096:	cf 93       	push	r28
    1098:	00 d0       	rcall	.+0      	; 0x109a <Dio_vidSetPinVal+0x6>
    109a:	00 d0       	rcall	.+0      	; 0x109c <Dio_vidSetPinVal+0x8>
    109c:	00 d0       	rcall	.+0      	; 0x109e <Dio_vidSetPinVal+0xa>
    109e:	cd b7       	in	r28, 0x3d	; 61
    10a0:	de b7       	in	r29, 0x3e	; 62
    10a2:	8b 83       	std	Y+3, r24	; 0x03
    10a4:	6c 83       	std	Y+4, r22	; 0x04
	u8 Loc_u8PortId; //Local u8 Port Id
	u8 Loc_u8PinId;	//Local u8 Pin Id

	Loc_u8PortId = Copy_u8SwPinId / 8; //To get the port id, 0,1,2,3
    10a6:	8b 81       	ldd	r24, Y+3	; 0x03
    10a8:	86 95       	lsr	r24
    10aa:	86 95       	lsr	r24
    10ac:	86 95       	lsr	r24
    10ae:	8a 83       	std	Y+2, r24	; 0x02
	Loc_u8PinId =  Copy_u8SwPinId % 8; //To get the pin id, 0 ->> 31
    10b0:	8b 81       	ldd	r24, Y+3	; 0x03
    10b2:	87 70       	andi	r24, 0x07	; 7
    10b4:	89 83       	std	Y+1, r24	; 0x01

	//DIO_u8HIGH = 1 and DIO_u8LOW = 0
	switch(Loc_u8PortId)
    10b6:	8a 81       	ldd	r24, Y+2	; 0x02
    10b8:	28 2f       	mov	r18, r24
    10ba:	30 e0       	ldi	r19, 0x00	; 0
    10bc:	3e 83       	std	Y+6, r19	; 0x06
    10be:	2d 83       	std	Y+5, r18	; 0x05
    10c0:	8d 81       	ldd	r24, Y+5	; 0x05
    10c2:	9e 81       	ldd	r25, Y+6	; 0x06
    10c4:	81 30       	cpi	r24, 0x01	; 1
    10c6:	91 05       	cpc	r25, r1
    10c8:	09 f4       	brne	.+2      	; 0x10cc <Dio_vidSetPinVal+0x38>
    10ca:	43 c0       	rjmp	.+134    	; 0x1152 <Dio_vidSetPinVal+0xbe>
    10cc:	2d 81       	ldd	r18, Y+5	; 0x05
    10ce:	3e 81       	ldd	r19, Y+6	; 0x06
    10d0:	22 30       	cpi	r18, 0x02	; 2
    10d2:	31 05       	cpc	r19, r1
    10d4:	2c f4       	brge	.+10     	; 0x10e0 <Dio_vidSetPinVal+0x4c>
    10d6:	8d 81       	ldd	r24, Y+5	; 0x05
    10d8:	9e 81       	ldd	r25, Y+6	; 0x06
    10da:	00 97       	sbiw	r24, 0x00	; 0
    10dc:	71 f0       	breq	.+28     	; 0x10fa <Dio_vidSetPinVal+0x66>
    10de:	bc c0       	rjmp	.+376    	; 0x1258 <Dio_vidSetPinVal+0x1c4>
    10e0:	2d 81       	ldd	r18, Y+5	; 0x05
    10e2:	3e 81       	ldd	r19, Y+6	; 0x06
    10e4:	22 30       	cpi	r18, 0x02	; 2
    10e6:	31 05       	cpc	r19, r1
    10e8:	09 f4       	brne	.+2      	; 0x10ec <Dio_vidSetPinVal+0x58>
    10ea:	5f c0       	rjmp	.+190    	; 0x11aa <Dio_vidSetPinVal+0x116>
    10ec:	8d 81       	ldd	r24, Y+5	; 0x05
    10ee:	9e 81       	ldd	r25, Y+6	; 0x06
    10f0:	83 30       	cpi	r24, 0x03	; 3
    10f2:	91 05       	cpc	r25, r1
    10f4:	09 f4       	brne	.+2      	; 0x10f8 <Dio_vidSetPinVal+0x64>
    10f6:	85 c0       	rjmp	.+266    	; 0x1202 <Dio_vidSetPinVal+0x16e>
    10f8:	af c0       	rjmp	.+350    	; 0x1258 <Dio_vidSetPinVal+0x1c4>
	{
	case 0: // 0 = __PORTA
		if(Copy_u8SwPinVal == DIO_u8HIGH)
    10fa:	8c 81       	ldd	r24, Y+4	; 0x04
    10fc:	81 30       	cpi	r24, 0x01	; 1
    10fe:	a1 f4       	brne	.+40     	; 0x1128 <Dio_vidSetPinVal+0x94>
		{
			SET_BIT(_PORTA,Loc_u8PinId); //set the pin in port A with High value
    1100:	ab e3       	ldi	r26, 0x3B	; 59
    1102:	b0 e0       	ldi	r27, 0x00	; 0
    1104:	eb e3       	ldi	r30, 0x3B	; 59
    1106:	f0 e0       	ldi	r31, 0x00	; 0
    1108:	80 81       	ld	r24, Z
    110a:	48 2f       	mov	r20, r24
    110c:	89 81       	ldd	r24, Y+1	; 0x01
    110e:	28 2f       	mov	r18, r24
    1110:	30 e0       	ldi	r19, 0x00	; 0
    1112:	81 e0       	ldi	r24, 0x01	; 1
    1114:	90 e0       	ldi	r25, 0x00	; 0
    1116:	02 2e       	mov	r0, r18
    1118:	02 c0       	rjmp	.+4      	; 0x111e <Dio_vidSetPinVal+0x8a>
    111a:	88 0f       	add	r24, r24
    111c:	99 1f       	adc	r25, r25
    111e:	0a 94       	dec	r0
    1120:	e2 f7       	brpl	.-8      	; 0x111a <Dio_vidSetPinVal+0x86>
    1122:	84 2b       	or	r24, r20
    1124:	8c 93       	st	X, r24
    1126:	98 c0       	rjmp	.+304    	; 0x1258 <Dio_vidSetPinVal+0x1c4>
		}
		else
		{
			CLR_BIT(_PORTA,Loc_u8PinId); //set the pin in port A with Low value
    1128:	ab e3       	ldi	r26, 0x3B	; 59
    112a:	b0 e0       	ldi	r27, 0x00	; 0
    112c:	eb e3       	ldi	r30, 0x3B	; 59
    112e:	f0 e0       	ldi	r31, 0x00	; 0
    1130:	80 81       	ld	r24, Z
    1132:	48 2f       	mov	r20, r24
    1134:	89 81       	ldd	r24, Y+1	; 0x01
    1136:	28 2f       	mov	r18, r24
    1138:	30 e0       	ldi	r19, 0x00	; 0
    113a:	81 e0       	ldi	r24, 0x01	; 1
    113c:	90 e0       	ldi	r25, 0x00	; 0
    113e:	02 2e       	mov	r0, r18
    1140:	02 c0       	rjmp	.+4      	; 0x1146 <Dio_vidSetPinVal+0xb2>
    1142:	88 0f       	add	r24, r24
    1144:	99 1f       	adc	r25, r25
    1146:	0a 94       	dec	r0
    1148:	e2 f7       	brpl	.-8      	; 0x1142 <Dio_vidSetPinVal+0xae>
    114a:	80 95       	com	r24
    114c:	84 23       	and	r24, r20
    114e:	8c 93       	st	X, r24
    1150:	83 c0       	rjmp	.+262    	; 0x1258 <Dio_vidSetPinVal+0x1c4>
		}
		break;
	case 1: // 1 = _PORTB
		if(Copy_u8SwPinVal == DIO_u8HIGH)
    1152:	8c 81       	ldd	r24, Y+4	; 0x04
    1154:	81 30       	cpi	r24, 0x01	; 1
    1156:	a1 f4       	brne	.+40     	; 0x1180 <Dio_vidSetPinVal+0xec>
		{
			SET_BIT(_PORTB,Loc_u8PinId); //set the pin in port A with High value
    1158:	a8 e3       	ldi	r26, 0x38	; 56
    115a:	b0 e0       	ldi	r27, 0x00	; 0
    115c:	e8 e3       	ldi	r30, 0x38	; 56
    115e:	f0 e0       	ldi	r31, 0x00	; 0
    1160:	80 81       	ld	r24, Z
    1162:	48 2f       	mov	r20, r24
    1164:	89 81       	ldd	r24, Y+1	; 0x01
    1166:	28 2f       	mov	r18, r24
    1168:	30 e0       	ldi	r19, 0x00	; 0
    116a:	81 e0       	ldi	r24, 0x01	; 1
    116c:	90 e0       	ldi	r25, 0x00	; 0
    116e:	02 2e       	mov	r0, r18
    1170:	02 c0       	rjmp	.+4      	; 0x1176 <Dio_vidSetPinVal+0xe2>
    1172:	88 0f       	add	r24, r24
    1174:	99 1f       	adc	r25, r25
    1176:	0a 94       	dec	r0
    1178:	e2 f7       	brpl	.-8      	; 0x1172 <Dio_vidSetPinVal+0xde>
    117a:	84 2b       	or	r24, r20
    117c:	8c 93       	st	X, r24
    117e:	6c c0       	rjmp	.+216    	; 0x1258 <Dio_vidSetPinVal+0x1c4>
		}
		else
		{
			CLR_BIT(_PORTB,Loc_u8PinId); //set the pin in port A with Low value
    1180:	a8 e3       	ldi	r26, 0x38	; 56
    1182:	b0 e0       	ldi	r27, 0x00	; 0
    1184:	e8 e3       	ldi	r30, 0x38	; 56
    1186:	f0 e0       	ldi	r31, 0x00	; 0
    1188:	80 81       	ld	r24, Z
    118a:	48 2f       	mov	r20, r24
    118c:	89 81       	ldd	r24, Y+1	; 0x01
    118e:	28 2f       	mov	r18, r24
    1190:	30 e0       	ldi	r19, 0x00	; 0
    1192:	81 e0       	ldi	r24, 0x01	; 1
    1194:	90 e0       	ldi	r25, 0x00	; 0
    1196:	02 2e       	mov	r0, r18
    1198:	02 c0       	rjmp	.+4      	; 0x119e <Dio_vidSetPinVal+0x10a>
    119a:	88 0f       	add	r24, r24
    119c:	99 1f       	adc	r25, r25
    119e:	0a 94       	dec	r0
    11a0:	e2 f7       	brpl	.-8      	; 0x119a <Dio_vidSetPinVal+0x106>
    11a2:	80 95       	com	r24
    11a4:	84 23       	and	r24, r20
    11a6:	8c 93       	st	X, r24
    11a8:	57 c0       	rjmp	.+174    	; 0x1258 <Dio_vidSetPinVal+0x1c4>
		}
		break;
	case 2: // 2 = _PORTC
		if(Copy_u8SwPinVal == DIO_u8HIGH)
    11aa:	8c 81       	ldd	r24, Y+4	; 0x04
    11ac:	81 30       	cpi	r24, 0x01	; 1
    11ae:	a1 f4       	brne	.+40     	; 0x11d8 <Dio_vidSetPinVal+0x144>
		{
			SET_BIT(_PORTC,Loc_u8PinId); //set the pin in port A with High value
    11b0:	a5 e3       	ldi	r26, 0x35	; 53
    11b2:	b0 e0       	ldi	r27, 0x00	; 0
    11b4:	e5 e3       	ldi	r30, 0x35	; 53
    11b6:	f0 e0       	ldi	r31, 0x00	; 0
    11b8:	80 81       	ld	r24, Z
    11ba:	48 2f       	mov	r20, r24
    11bc:	89 81       	ldd	r24, Y+1	; 0x01
    11be:	28 2f       	mov	r18, r24
    11c0:	30 e0       	ldi	r19, 0x00	; 0
    11c2:	81 e0       	ldi	r24, 0x01	; 1
    11c4:	90 e0       	ldi	r25, 0x00	; 0
    11c6:	02 2e       	mov	r0, r18
    11c8:	02 c0       	rjmp	.+4      	; 0x11ce <Dio_vidSetPinVal+0x13a>
    11ca:	88 0f       	add	r24, r24
    11cc:	99 1f       	adc	r25, r25
    11ce:	0a 94       	dec	r0
    11d0:	e2 f7       	brpl	.-8      	; 0x11ca <Dio_vidSetPinVal+0x136>
    11d2:	84 2b       	or	r24, r20
    11d4:	8c 93       	st	X, r24
    11d6:	40 c0       	rjmp	.+128    	; 0x1258 <Dio_vidSetPinVal+0x1c4>
		}
		else
		{
			CLR_BIT(_PORTC,Loc_u8PinId); //set the pin in port A with Low value
    11d8:	a5 e3       	ldi	r26, 0x35	; 53
    11da:	b0 e0       	ldi	r27, 0x00	; 0
    11dc:	e5 e3       	ldi	r30, 0x35	; 53
    11de:	f0 e0       	ldi	r31, 0x00	; 0
    11e0:	80 81       	ld	r24, Z
    11e2:	48 2f       	mov	r20, r24
    11e4:	89 81       	ldd	r24, Y+1	; 0x01
    11e6:	28 2f       	mov	r18, r24
    11e8:	30 e0       	ldi	r19, 0x00	; 0
    11ea:	81 e0       	ldi	r24, 0x01	; 1
    11ec:	90 e0       	ldi	r25, 0x00	; 0
    11ee:	02 2e       	mov	r0, r18
    11f0:	02 c0       	rjmp	.+4      	; 0x11f6 <Dio_vidSetPinVal+0x162>
    11f2:	88 0f       	add	r24, r24
    11f4:	99 1f       	adc	r25, r25
    11f6:	0a 94       	dec	r0
    11f8:	e2 f7       	brpl	.-8      	; 0x11f2 <Dio_vidSetPinVal+0x15e>
    11fa:	80 95       	com	r24
    11fc:	84 23       	and	r24, r20
    11fe:	8c 93       	st	X, r24
    1200:	2b c0       	rjmp	.+86     	; 0x1258 <Dio_vidSetPinVal+0x1c4>
		}
		break;
	case 3: // 3 = __PORTD
		if(Copy_u8SwPinVal == DIO_u8HIGH)
    1202:	8c 81       	ldd	r24, Y+4	; 0x04
    1204:	81 30       	cpi	r24, 0x01	; 1
    1206:	a1 f4       	brne	.+40     	; 0x1230 <Dio_vidSetPinVal+0x19c>
		{
			SET_BIT(_PORTD,Loc_u8PinId); //set the pin in port A with High value
    1208:	a2 e3       	ldi	r26, 0x32	; 50
    120a:	b0 e0       	ldi	r27, 0x00	; 0
    120c:	e2 e3       	ldi	r30, 0x32	; 50
    120e:	f0 e0       	ldi	r31, 0x00	; 0
    1210:	80 81       	ld	r24, Z
    1212:	48 2f       	mov	r20, r24
    1214:	89 81       	ldd	r24, Y+1	; 0x01
    1216:	28 2f       	mov	r18, r24
    1218:	30 e0       	ldi	r19, 0x00	; 0
    121a:	81 e0       	ldi	r24, 0x01	; 1
    121c:	90 e0       	ldi	r25, 0x00	; 0
    121e:	02 2e       	mov	r0, r18
    1220:	02 c0       	rjmp	.+4      	; 0x1226 <Dio_vidSetPinVal+0x192>
    1222:	88 0f       	add	r24, r24
    1224:	99 1f       	adc	r25, r25
    1226:	0a 94       	dec	r0
    1228:	e2 f7       	brpl	.-8      	; 0x1222 <Dio_vidSetPinVal+0x18e>
    122a:	84 2b       	or	r24, r20
    122c:	8c 93       	st	X, r24
    122e:	14 c0       	rjmp	.+40     	; 0x1258 <Dio_vidSetPinVal+0x1c4>
		}
		else
		{
			CLR_BIT(_PORTD,Loc_u8PinId); //set the pin in port A with Low value
    1230:	a2 e3       	ldi	r26, 0x32	; 50
    1232:	b0 e0       	ldi	r27, 0x00	; 0
    1234:	e2 e3       	ldi	r30, 0x32	; 50
    1236:	f0 e0       	ldi	r31, 0x00	; 0
    1238:	80 81       	ld	r24, Z
    123a:	48 2f       	mov	r20, r24
    123c:	89 81       	ldd	r24, Y+1	; 0x01
    123e:	28 2f       	mov	r18, r24
    1240:	30 e0       	ldi	r19, 0x00	; 0
    1242:	81 e0       	ldi	r24, 0x01	; 1
    1244:	90 e0       	ldi	r25, 0x00	; 0
    1246:	02 2e       	mov	r0, r18
    1248:	02 c0       	rjmp	.+4      	; 0x124e <Dio_vidSetPinVal+0x1ba>
    124a:	88 0f       	add	r24, r24
    124c:	99 1f       	adc	r25, r25
    124e:	0a 94       	dec	r0
    1250:	e2 f7       	brpl	.-8      	; 0x124a <Dio_vidSetPinVal+0x1b6>
    1252:	80 95       	com	r24
    1254:	84 23       	and	r24, r20
    1256:	8c 93       	st	X, r24
		}
		break;
	default:
		break;
	}
}
    1258:	26 96       	adiw	r28, 0x06	; 6
    125a:	0f b6       	in	r0, 0x3f	; 63
    125c:	f8 94       	cli
    125e:	de bf       	out	0x3e, r29	; 62
    1260:	0f be       	out	0x3f, r0	; 63
    1262:	cd bf       	out	0x3d, r28	; 61
    1264:	cf 91       	pop	r28
    1266:	df 91       	pop	r29
    1268:	08 95       	ret

0000126a <Dio_u8GetPinVal>:
 * Input/Output Parameter:
 *					-Not applicable (void)
 * **************************************************************************************
 */
u8 Dio_u8GetPinVal(u8 Copy_u8SwPinId)
{
    126a:	df 93       	push	r29
    126c:	cf 93       	push	r28
    126e:	00 d0       	rcall	.+0      	; 0x1270 <Dio_u8GetPinVal+0x6>
    1270:	00 d0       	rcall	.+0      	; 0x1272 <Dio_u8GetPinVal+0x8>
    1272:	00 d0       	rcall	.+0      	; 0x1274 <Dio_u8GetPinVal+0xa>
    1274:	cd b7       	in	r28, 0x3d	; 61
    1276:	de b7       	in	r29, 0x3e	; 62
    1278:	8c 83       	std	Y+4, r24	; 0x04
	u8 Loc_u8returnVal;

	u8 Loc_u8PortId; //Local u8 Port Id
	u8 Loc_u8PinId;	//Local u8 Pin Id

	Loc_u8PortId = Copy_u8SwPinId / 8; //To get the port id, 0,1,2,3
    127a:	8c 81       	ldd	r24, Y+4	; 0x04
    127c:	86 95       	lsr	r24
    127e:	86 95       	lsr	r24
    1280:	86 95       	lsr	r24
    1282:	8a 83       	std	Y+2, r24	; 0x02
	Loc_u8PinId =  Copy_u8SwPinId % 8; //To get the pin id, 0 ->> 31
    1284:	8c 81       	ldd	r24, Y+4	; 0x04
    1286:	87 70       	andi	r24, 0x07	; 7
    1288:	89 83       	std	Y+1, r24	; 0x01

	//DIO_u8HIGH = 1 and DIO_u8LOW = 0
	switch(Loc_u8PortId)
    128a:	8a 81       	ldd	r24, Y+2	; 0x02
    128c:	28 2f       	mov	r18, r24
    128e:	30 e0       	ldi	r19, 0x00	; 0
    1290:	3e 83       	std	Y+6, r19	; 0x06
    1292:	2d 83       	std	Y+5, r18	; 0x05
    1294:	4d 81       	ldd	r20, Y+5	; 0x05
    1296:	5e 81       	ldd	r21, Y+6	; 0x06
    1298:	41 30       	cpi	r20, 0x01	; 1
    129a:	51 05       	cpc	r21, r1
    129c:	41 f1       	breq	.+80     	; 0x12ee <Dio_u8GetPinVal+0x84>
    129e:	8d 81       	ldd	r24, Y+5	; 0x05
    12a0:	9e 81       	ldd	r25, Y+6	; 0x06
    12a2:	82 30       	cpi	r24, 0x02	; 2
    12a4:	91 05       	cpc	r25, r1
    12a6:	34 f4       	brge	.+12     	; 0x12b4 <Dio_u8GetPinVal+0x4a>
    12a8:	2d 81       	ldd	r18, Y+5	; 0x05
    12aa:	3e 81       	ldd	r19, Y+6	; 0x06
    12ac:	21 15       	cp	r18, r1
    12ae:	31 05       	cpc	r19, r1
    12b0:	61 f0       	breq	.+24     	; 0x12ca <Dio_u8GetPinVal+0x60>
    12b2:	52 c0       	rjmp	.+164    	; 0x1358 <Dio_u8GetPinVal+0xee>
    12b4:	4d 81       	ldd	r20, Y+5	; 0x05
    12b6:	5e 81       	ldd	r21, Y+6	; 0x06
    12b8:	42 30       	cpi	r20, 0x02	; 2
    12ba:	51 05       	cpc	r21, r1
    12bc:	51 f1       	breq	.+84     	; 0x1312 <Dio_u8GetPinVal+0xa8>
    12be:	8d 81       	ldd	r24, Y+5	; 0x05
    12c0:	9e 81       	ldd	r25, Y+6	; 0x06
    12c2:	83 30       	cpi	r24, 0x03	; 3
    12c4:	91 05       	cpc	r25, r1
    12c6:	b9 f1       	breq	.+110    	; 0x1336 <Dio_u8GetPinVal+0xcc>
    12c8:	47 c0       	rjmp	.+142    	; 0x1358 <Dio_u8GetPinVal+0xee>
	{
	case 0: // 0 = _PORTA

		Loc_u8returnVal = GET_BIT(_PINA,Loc_u8PinId); //read the pin value
    12ca:	e9 e3       	ldi	r30, 0x39	; 57
    12cc:	f0 e0       	ldi	r31, 0x00	; 0
    12ce:	80 81       	ld	r24, Z
    12d0:	28 2f       	mov	r18, r24
    12d2:	30 e0       	ldi	r19, 0x00	; 0
    12d4:	89 81       	ldd	r24, Y+1	; 0x01
    12d6:	88 2f       	mov	r24, r24
    12d8:	90 e0       	ldi	r25, 0x00	; 0
    12da:	a9 01       	movw	r20, r18
    12dc:	02 c0       	rjmp	.+4      	; 0x12e2 <Dio_u8GetPinVal+0x78>
    12de:	55 95       	asr	r21
    12e0:	47 95       	ror	r20
    12e2:	8a 95       	dec	r24
    12e4:	e2 f7       	brpl	.-8      	; 0x12de <Dio_u8GetPinVal+0x74>
    12e6:	ca 01       	movw	r24, r20
    12e8:	81 70       	andi	r24, 0x01	; 1
    12ea:	8b 83       	std	Y+3, r24	; 0x03
    12ec:	35 c0       	rjmp	.+106    	; 0x1358 <Dio_u8GetPinVal+0xee>
		break;
	case 1: // 1 = _PORTB

		Loc_u8returnVal = GET_BIT(_PINB,Loc_u8PinId); //read the pin value
    12ee:	e6 e3       	ldi	r30, 0x36	; 54
    12f0:	f0 e0       	ldi	r31, 0x00	; 0
    12f2:	80 81       	ld	r24, Z
    12f4:	28 2f       	mov	r18, r24
    12f6:	30 e0       	ldi	r19, 0x00	; 0
    12f8:	89 81       	ldd	r24, Y+1	; 0x01
    12fa:	88 2f       	mov	r24, r24
    12fc:	90 e0       	ldi	r25, 0x00	; 0
    12fe:	a9 01       	movw	r20, r18
    1300:	02 c0       	rjmp	.+4      	; 0x1306 <Dio_u8GetPinVal+0x9c>
    1302:	55 95       	asr	r21
    1304:	47 95       	ror	r20
    1306:	8a 95       	dec	r24
    1308:	e2 f7       	brpl	.-8      	; 0x1302 <Dio_u8GetPinVal+0x98>
    130a:	ca 01       	movw	r24, r20
    130c:	81 70       	andi	r24, 0x01	; 1
    130e:	8b 83       	std	Y+3, r24	; 0x03
    1310:	23 c0       	rjmp	.+70     	; 0x1358 <Dio_u8GetPinVal+0xee>
		break;
	case 2: // 2 = _PORTC

		Loc_u8returnVal = GET_BIT(_PINC,Loc_u8PinId); //read the pin value
    1312:	e3 e3       	ldi	r30, 0x33	; 51
    1314:	f0 e0       	ldi	r31, 0x00	; 0
    1316:	80 81       	ld	r24, Z
    1318:	28 2f       	mov	r18, r24
    131a:	30 e0       	ldi	r19, 0x00	; 0
    131c:	89 81       	ldd	r24, Y+1	; 0x01
    131e:	88 2f       	mov	r24, r24
    1320:	90 e0       	ldi	r25, 0x00	; 0
    1322:	a9 01       	movw	r20, r18
    1324:	02 c0       	rjmp	.+4      	; 0x132a <Dio_u8GetPinVal+0xc0>
    1326:	55 95       	asr	r21
    1328:	47 95       	ror	r20
    132a:	8a 95       	dec	r24
    132c:	e2 f7       	brpl	.-8      	; 0x1326 <Dio_u8GetPinVal+0xbc>
    132e:	ca 01       	movw	r24, r20
    1330:	81 70       	andi	r24, 0x01	; 1
    1332:	8b 83       	std	Y+3, r24	; 0x03
    1334:	11 c0       	rjmp	.+34     	; 0x1358 <Dio_u8GetPinVal+0xee>
		break;
	case 3: // 3 = _PORTD
		//read the required pin value in portD and assign it's value
		Loc_u8returnVal = GET_BIT(_PIND,Loc_u8PinId);
    1336:	e0 e3       	ldi	r30, 0x30	; 48
    1338:	f0 e0       	ldi	r31, 0x00	; 0
    133a:	80 81       	ld	r24, Z
    133c:	28 2f       	mov	r18, r24
    133e:	30 e0       	ldi	r19, 0x00	; 0
    1340:	89 81       	ldd	r24, Y+1	; 0x01
    1342:	88 2f       	mov	r24, r24
    1344:	90 e0       	ldi	r25, 0x00	; 0
    1346:	a9 01       	movw	r20, r18
    1348:	02 c0       	rjmp	.+4      	; 0x134e <Dio_u8GetPinVal+0xe4>
    134a:	55 95       	asr	r21
    134c:	47 95       	ror	r20
    134e:	8a 95       	dec	r24
    1350:	e2 f7       	brpl	.-8      	; 0x134a <Dio_u8GetPinVal+0xe0>
    1352:	ca 01       	movw	r24, r20
    1354:	81 70       	andi	r24, 0x01	; 1
    1356:	8b 83       	std	Y+3, r24	; 0x03
		break;
	default:
		break;
	}

	return Loc_u8returnVal;
    1358:	8b 81       	ldd	r24, Y+3	; 0x03
}
    135a:	26 96       	adiw	r28, 0x06	; 6
    135c:	0f b6       	in	r0, 0x3f	; 63
    135e:	f8 94       	cli
    1360:	de bf       	out	0x3e, r29	; 62
    1362:	0f be       	out	0x3f, r0	; 63
    1364:	cd bf       	out	0x3d, r28	; 61
    1366:	cf 91       	pop	r28
    1368:	df 91       	pop	r29
    136a:	08 95       	ret

0000136c <Dio_vidTogglePin>:

void Dio_vidTogglePin(u8 Copy_u8SwPinId)
{
    136c:	df 93       	push	r29
    136e:	cf 93       	push	r28
    1370:	00 d0       	rcall	.+0      	; 0x1372 <Dio_vidTogglePin+0x6>
    1372:	00 d0       	rcall	.+0      	; 0x1374 <Dio_vidTogglePin+0x8>
    1374:	0f 92       	push	r0
    1376:	cd b7       	in	r28, 0x3d	; 61
    1378:	de b7       	in	r29, 0x3e	; 62
    137a:	8b 83       	std	Y+3, r24	; 0x03
	u8 Loc_u8PortId; //Local u8 Port Id
	u8 Loc_u8PinId;	//Local u8 Pin Id

	Loc_u8PortId = Copy_u8SwPinId / 8; //To get the port id, 0,1,2,3
    137c:	8b 81       	ldd	r24, Y+3	; 0x03
    137e:	86 95       	lsr	r24
    1380:	86 95       	lsr	r24
    1382:	86 95       	lsr	r24
    1384:	8a 83       	std	Y+2, r24	; 0x02
	Loc_u8PinId =  Copy_u8SwPinId % 8; //To get the pin id, 0 ->> 31
    1386:	8b 81       	ldd	r24, Y+3	; 0x03
    1388:	87 70       	andi	r24, 0x07	; 7
    138a:	89 83       	std	Y+1, r24	; 0x01

	switch(Loc_u8PortId)
    138c:	8a 81       	ldd	r24, Y+2	; 0x02
    138e:	28 2f       	mov	r18, r24
    1390:	30 e0       	ldi	r19, 0x00	; 0
    1392:	3d 83       	std	Y+5, r19	; 0x05
    1394:	2c 83       	std	Y+4, r18	; 0x04
    1396:	8c 81       	ldd	r24, Y+4	; 0x04
    1398:	9d 81       	ldd	r25, Y+5	; 0x05
    139a:	81 30       	cpi	r24, 0x01	; 1
    139c:	91 05       	cpc	r25, r1
    139e:	49 f1       	breq	.+82     	; 0x13f2 <Dio_vidTogglePin+0x86>
    13a0:	2c 81       	ldd	r18, Y+4	; 0x04
    13a2:	3d 81       	ldd	r19, Y+5	; 0x05
    13a4:	22 30       	cpi	r18, 0x02	; 2
    13a6:	31 05       	cpc	r19, r1
    13a8:	2c f4       	brge	.+10     	; 0x13b4 <Dio_vidTogglePin+0x48>
    13aa:	8c 81       	ldd	r24, Y+4	; 0x04
    13ac:	9d 81       	ldd	r25, Y+5	; 0x05
    13ae:	00 97       	sbiw	r24, 0x00	; 0
    13b0:	61 f0       	breq	.+24     	; 0x13ca <Dio_vidTogglePin+0x5e>
    13b2:	5a c0       	rjmp	.+180    	; 0x1468 <Dio_vidTogglePin+0xfc>
    13b4:	2c 81       	ldd	r18, Y+4	; 0x04
    13b6:	3d 81       	ldd	r19, Y+5	; 0x05
    13b8:	22 30       	cpi	r18, 0x02	; 2
    13ba:	31 05       	cpc	r19, r1
    13bc:	71 f1       	breq	.+92     	; 0x141a <Dio_vidTogglePin+0xae>
    13be:	8c 81       	ldd	r24, Y+4	; 0x04
    13c0:	9d 81       	ldd	r25, Y+5	; 0x05
    13c2:	83 30       	cpi	r24, 0x03	; 3
    13c4:	91 05       	cpc	r25, r1
    13c6:	e9 f1       	breq	.+122    	; 0x1442 <Dio_vidTogglePin+0xd6>
    13c8:	4f c0       	rjmp	.+158    	; 0x1468 <Dio_vidTogglePin+0xfc>
	{
	case 0: // 0 = _PORTA
		//Toggle the required pin in portA
		TGL_BIT(_PORTA,Loc_u8PinId);
    13ca:	ab e3       	ldi	r26, 0x3B	; 59
    13cc:	b0 e0       	ldi	r27, 0x00	; 0
    13ce:	eb e3       	ldi	r30, 0x3B	; 59
    13d0:	f0 e0       	ldi	r31, 0x00	; 0
    13d2:	80 81       	ld	r24, Z
    13d4:	48 2f       	mov	r20, r24
    13d6:	89 81       	ldd	r24, Y+1	; 0x01
    13d8:	28 2f       	mov	r18, r24
    13da:	30 e0       	ldi	r19, 0x00	; 0
    13dc:	81 e0       	ldi	r24, 0x01	; 1
    13de:	90 e0       	ldi	r25, 0x00	; 0
    13e0:	02 2e       	mov	r0, r18
    13e2:	02 c0       	rjmp	.+4      	; 0x13e8 <Dio_vidTogglePin+0x7c>
    13e4:	88 0f       	add	r24, r24
    13e6:	99 1f       	adc	r25, r25
    13e8:	0a 94       	dec	r0
    13ea:	e2 f7       	brpl	.-8      	; 0x13e4 <Dio_vidTogglePin+0x78>
    13ec:	84 27       	eor	r24, r20
    13ee:	8c 93       	st	X, r24
    13f0:	3b c0       	rjmp	.+118    	; 0x1468 <Dio_vidTogglePin+0xfc>
		break;

	case 1: // 1 = _PORTB
		//Toggle the required pin in portB
		TGL_BIT(_PORTB,Loc_u8PinId);
    13f2:	a8 e3       	ldi	r26, 0x38	; 56
    13f4:	b0 e0       	ldi	r27, 0x00	; 0
    13f6:	e8 e3       	ldi	r30, 0x38	; 56
    13f8:	f0 e0       	ldi	r31, 0x00	; 0
    13fa:	80 81       	ld	r24, Z
    13fc:	48 2f       	mov	r20, r24
    13fe:	89 81       	ldd	r24, Y+1	; 0x01
    1400:	28 2f       	mov	r18, r24
    1402:	30 e0       	ldi	r19, 0x00	; 0
    1404:	81 e0       	ldi	r24, 0x01	; 1
    1406:	90 e0       	ldi	r25, 0x00	; 0
    1408:	02 2e       	mov	r0, r18
    140a:	02 c0       	rjmp	.+4      	; 0x1410 <Dio_vidTogglePin+0xa4>
    140c:	88 0f       	add	r24, r24
    140e:	99 1f       	adc	r25, r25
    1410:	0a 94       	dec	r0
    1412:	e2 f7       	brpl	.-8      	; 0x140c <Dio_vidTogglePin+0xa0>
    1414:	84 27       	eor	r24, r20
    1416:	8c 93       	st	X, r24
    1418:	27 c0       	rjmp	.+78     	; 0x1468 <Dio_vidTogglePin+0xfc>
		break;

	case 2: // 2 = _PORTC
		//Toggle the required pin in portC
		TGL_BIT(_PORTC,Loc_u8PinId);
    141a:	a5 e3       	ldi	r26, 0x35	; 53
    141c:	b0 e0       	ldi	r27, 0x00	; 0
    141e:	e5 e3       	ldi	r30, 0x35	; 53
    1420:	f0 e0       	ldi	r31, 0x00	; 0
    1422:	80 81       	ld	r24, Z
    1424:	48 2f       	mov	r20, r24
    1426:	89 81       	ldd	r24, Y+1	; 0x01
    1428:	28 2f       	mov	r18, r24
    142a:	30 e0       	ldi	r19, 0x00	; 0
    142c:	81 e0       	ldi	r24, 0x01	; 1
    142e:	90 e0       	ldi	r25, 0x00	; 0
    1430:	02 2e       	mov	r0, r18
    1432:	02 c0       	rjmp	.+4      	; 0x1438 <Dio_vidTogglePin+0xcc>
    1434:	88 0f       	add	r24, r24
    1436:	99 1f       	adc	r25, r25
    1438:	0a 94       	dec	r0
    143a:	e2 f7       	brpl	.-8      	; 0x1434 <Dio_vidTogglePin+0xc8>
    143c:	84 27       	eor	r24, r20
    143e:	8c 93       	st	X, r24
    1440:	13 c0       	rjmp	.+38     	; 0x1468 <Dio_vidTogglePin+0xfc>
		break;

	case 3: // 3 = _PORTD
		//Toggle the required pin in portD
		TGL_BIT(_PORTD,Loc_u8PinId);
    1442:	a2 e3       	ldi	r26, 0x32	; 50
    1444:	b0 e0       	ldi	r27, 0x00	; 0
    1446:	e2 e3       	ldi	r30, 0x32	; 50
    1448:	f0 e0       	ldi	r31, 0x00	; 0
    144a:	80 81       	ld	r24, Z
    144c:	48 2f       	mov	r20, r24
    144e:	89 81       	ldd	r24, Y+1	; 0x01
    1450:	28 2f       	mov	r18, r24
    1452:	30 e0       	ldi	r19, 0x00	; 0
    1454:	81 e0       	ldi	r24, 0x01	; 1
    1456:	90 e0       	ldi	r25, 0x00	; 0
    1458:	02 2e       	mov	r0, r18
    145a:	02 c0       	rjmp	.+4      	; 0x1460 <Dio_vidTogglePin+0xf4>
    145c:	88 0f       	add	r24, r24
    145e:	99 1f       	adc	r25, r25
    1460:	0a 94       	dec	r0
    1462:	e2 f7       	brpl	.-8      	; 0x145c <Dio_vidTogglePin+0xf0>
    1464:	84 27       	eor	r24, r20
    1466:	8c 93       	st	X, r24
		break;

	default:
		break;
	}
}
    1468:	0f 90       	pop	r0
    146a:	0f 90       	pop	r0
    146c:	0f 90       	pop	r0
    146e:	0f 90       	pop	r0
    1470:	0f 90       	pop	r0
    1472:	cf 91       	pop	r28
    1474:	df 91       	pop	r29
    1476:	08 95       	ret

00001478 <Temp_hal_u8Init>:


/* This function is responsible for initializing down modules
 * used to get the engine temperature, which is the UART module
 * in our case.*/
u8 Temp_hal_u8Init (void){
    1478:	df 93       	push	r29
    147a:	cf 93       	push	r28
    147c:	cd b7       	in	r28, 0x3d	; 61
    147e:	de b7       	in	r29, 0x3e	; 62
	UART_u8Init();
    1480:	0e 94 e2 01 	call	0x3c4	; 0x3c4 <UART_u8Init>
	return RT_SUCCESS;
    1484:	80 e0       	ldi	r24, 0x00	; 0
}
    1486:	cf 91       	pop	r28
    1488:	df 91       	pop	r29
    148a:	08 95       	ret

0000148c <Temp_hal_u8SetEngineTemp>:
 * It calls the UART API used to receive data from UART Rx.
 * “Temp_hal_su8EngineTemp” would be updated periodically by the value received from UART Rx buffer.
 * This function address is passed to the UART module using the function “UART_u8SetCallBack”;
 * that is in order to be executed whenever a UART Rx interrupt is fired.
 * */
u8 Temp_hal_u8SetEngineTemp(void){
    148c:	df 93       	push	r29
    148e:	cf 93       	push	r28
    1490:	cd b7       	in	r28, 0x3d	; 61
    1492:	de b7       	in	r29, 0x3e	; 62
	UART_u8ReceiveData(&Temp_hal_su8EngineTemp);
    1494:	82 e7       	ldi	r24, 0x72	; 114
    1496:	93 e0       	ldi	r25, 0x03	; 3
    1498:	0e 94 2e 02 	call	0x45c	; 0x45c <UART_u8ReceiveData>
	return RT_SUCCESS;
    149c:	80 e0       	ldi	r24, 0x00	; 0
}
    149e:	cf 91       	pop	r28
    14a0:	df 91       	pop	r29
    14a2:	08 95       	ret

000014a4 <Temp_hal_u8GetEngineTemp>:



/* This function is used as a getter. It is used by Sensor_manager
 * to get the engine temperature*/
u8 Temp_hal_u8GetEngineTemp (u8 * pu8_EngineTemp){
    14a4:	df 93       	push	r29
    14a6:	cf 93       	push	r28
    14a8:	00 d0       	rcall	.+0      	; 0x14aa <Temp_hal_u8GetEngineTemp+0x6>
    14aa:	cd b7       	in	r28, 0x3d	; 61
    14ac:	de b7       	in	r29, 0x3e	; 62
    14ae:	9a 83       	std	Y+2, r25	; 0x02
    14b0:	89 83       	std	Y+1, r24	; 0x01
	*pu8_EngineTemp = Temp_hal_su8EngineTemp;
    14b2:	80 91 72 03 	lds	r24, 0x0372
    14b6:	e9 81       	ldd	r30, Y+1	; 0x01
    14b8:	fa 81       	ldd	r31, Y+2	; 0x02
    14ba:	80 83       	st	Z, r24
	Temp_hal_su8EngineTemp = 0 ;
    14bc:	10 92 72 03 	sts	0x0372, r1
	return RT_SUCCESS;
    14c0:	80 e0       	ldi	r24, 0x00	; 0
}
    14c2:	0f 90       	pop	r0
    14c4:	0f 90       	pop	r0
    14c6:	cf 91       	pop	r28
    14c8:	df 91       	pop	r29
    14ca:	08 95       	ret

000014cc <LED_vidTurnOn>:
#include "../../Mcal/Dio_Driver/Dio_int.h"
#include "Led_cfg.h"
#include "Led_int.h"

void LED_vidTurnOn(LED_enuLEDId Copy_enuLEDId)
{
    14cc:	df 93       	push	r29
    14ce:	cf 93       	push	r28
    14d0:	00 d0       	rcall	.+0      	; 0x14d2 <LED_vidTurnOn+0x6>
    14d2:	0f 92       	push	r0
    14d4:	cd b7       	in	r28, 0x3d	; 61
    14d6:	de b7       	in	r29, 0x3e	; 62
    14d8:	89 83       	std	Y+1, r24	; 0x01

	switch(Copy_enuLEDId)
    14da:	89 81       	ldd	r24, Y+1	; 0x01
    14dc:	28 2f       	mov	r18, r24
    14de:	30 e0       	ldi	r19, 0x00	; 0
    14e0:	3b 83       	std	Y+3, r19	; 0x03
    14e2:	2a 83       	std	Y+2, r18	; 0x02
    14e4:	8a 81       	ldd	r24, Y+2	; 0x02
    14e6:	9b 81       	ldd	r25, Y+3	; 0x03
    14e8:	84 30       	cpi	r24, 0x04	; 4
    14ea:	91 05       	cpc	r25, r1
    14ec:	09 f4       	brne	.+2      	; 0x14f0 <LED_vidTurnOn+0x24>
    14ee:	55 c0       	rjmp	.+170    	; 0x159a <LED_vidTurnOn+0xce>
    14f0:	2a 81       	ldd	r18, Y+2	; 0x02
    14f2:	3b 81       	ldd	r19, Y+3	; 0x03
    14f4:	25 30       	cpi	r18, 0x05	; 5
    14f6:	31 05       	cpc	r19, r1
    14f8:	dc f4       	brge	.+54     	; 0x1530 <LED_vidTurnOn+0x64>
    14fa:	8a 81       	ldd	r24, Y+2	; 0x02
    14fc:	9b 81       	ldd	r25, Y+3	; 0x03
    14fe:	81 30       	cpi	r24, 0x01	; 1
    1500:	91 05       	cpc	r25, r1
    1502:	09 f4       	brne	.+2      	; 0x1506 <LED_vidTurnOn+0x3a>
    1504:	3b c0       	rjmp	.+118    	; 0x157c <LED_vidTurnOn+0xb0>
    1506:	2a 81       	ldd	r18, Y+2	; 0x02
    1508:	3b 81       	ldd	r19, Y+3	; 0x03
    150a:	22 30       	cpi	r18, 0x02	; 2
    150c:	31 05       	cpc	r19, r1
    150e:	2c f4       	brge	.+10     	; 0x151a <LED_vidTurnOn+0x4e>
    1510:	8a 81       	ldd	r24, Y+2	; 0x02
    1512:	9b 81       	ldd	r25, Y+3	; 0x03
    1514:	00 97       	sbiw	r24, 0x00	; 0
    1516:	69 f1       	breq	.+90     	; 0x1572 <LED_vidTurnOn+0xa6>
    1518:	5d c0       	rjmp	.+186    	; 0x15d4 <LED_vidTurnOn+0x108>
    151a:	2a 81       	ldd	r18, Y+2	; 0x02
    151c:	3b 81       	ldd	r19, Y+3	; 0x03
    151e:	22 30       	cpi	r18, 0x02	; 2
    1520:	31 05       	cpc	r19, r1
    1522:	89 f1       	breq	.+98     	; 0x1586 <LED_vidTurnOn+0xba>
    1524:	8a 81       	ldd	r24, Y+2	; 0x02
    1526:	9b 81       	ldd	r25, Y+3	; 0x03
    1528:	83 30       	cpi	r24, 0x03	; 3
    152a:	91 05       	cpc	r25, r1
    152c:	89 f1       	breq	.+98     	; 0x1590 <LED_vidTurnOn+0xc4>
    152e:	52 c0       	rjmp	.+164    	; 0x15d4 <LED_vidTurnOn+0x108>
    1530:	2a 81       	ldd	r18, Y+2	; 0x02
    1532:	3b 81       	ldd	r19, Y+3	; 0x03
    1534:	27 30       	cpi	r18, 0x07	; 7
    1536:	31 05       	cpc	r19, r1
    1538:	09 f4       	brne	.+2      	; 0x153c <LED_vidTurnOn+0x70>
    153a:	3e c0       	rjmp	.+124    	; 0x15b8 <LED_vidTurnOn+0xec>
    153c:	8a 81       	ldd	r24, Y+2	; 0x02
    153e:	9b 81       	ldd	r25, Y+3	; 0x03
    1540:	88 30       	cpi	r24, 0x08	; 8
    1542:	91 05       	cpc	r25, r1
    1544:	5c f4       	brge	.+22     	; 0x155c <LED_vidTurnOn+0x90>
    1546:	2a 81       	ldd	r18, Y+2	; 0x02
    1548:	3b 81       	ldd	r19, Y+3	; 0x03
    154a:	25 30       	cpi	r18, 0x05	; 5
    154c:	31 05       	cpc	r19, r1
    154e:	51 f1       	breq	.+84     	; 0x15a4 <LED_vidTurnOn+0xd8>
    1550:	8a 81       	ldd	r24, Y+2	; 0x02
    1552:	9b 81       	ldd	r25, Y+3	; 0x03
    1554:	86 30       	cpi	r24, 0x06	; 6
    1556:	91 05       	cpc	r25, r1
    1558:	51 f1       	breq	.+84     	; 0x15ae <LED_vidTurnOn+0xe2>
    155a:	3c c0       	rjmp	.+120    	; 0x15d4 <LED_vidTurnOn+0x108>
    155c:	2a 81       	ldd	r18, Y+2	; 0x02
    155e:	3b 81       	ldd	r19, Y+3	; 0x03
    1560:	28 30       	cpi	r18, 0x08	; 8
    1562:	31 05       	cpc	r19, r1
    1564:	71 f1       	breq	.+92     	; 0x15c2 <LED_vidTurnOn+0xf6>
    1566:	8a 81       	ldd	r24, Y+2	; 0x02
    1568:	9b 81       	ldd	r25, Y+3	; 0x03
    156a:	89 30       	cpi	r24, 0x09	; 9
    156c:	91 05       	cpc	r25, r1
    156e:	71 f1       	breq	.+92     	; 0x15cc <LED_vidTurnOn+0x100>
    1570:	31 c0       	rjmp	.+98     	; 0x15d4 <LED_vidTurnOn+0x108>
	{
	case LED_enuID_0:
		Dio_vidSetPinVal(LED_0_enuPin , DIO_u8HIGH);
    1572:	80 e0       	ldi	r24, 0x00	; 0
    1574:	61 e0       	ldi	r22, 0x01	; 1
    1576:	0e 94 4a 08 	call	0x1094	; 0x1094 <Dio_vidSetPinVal>
    157a:	2c c0       	rjmp	.+88     	; 0x15d4 <LED_vidTurnOn+0x108>
		break;
	case LED_enuID_1:
		Dio_vidSetPinVal(LED_1_enuPin , DIO_u8HIGH);
    157c:	81 e0       	ldi	r24, 0x01	; 1
    157e:	61 e0       	ldi	r22, 0x01	; 1
    1580:	0e 94 4a 08 	call	0x1094	; 0x1094 <Dio_vidSetPinVal>
    1584:	27 c0       	rjmp	.+78     	; 0x15d4 <LED_vidTurnOn+0x108>
		break;
	case LED_enuID_2:
		Dio_vidSetPinVal(LED_2_enuPin , DIO_u8HIGH);
    1586:	82 e0       	ldi	r24, 0x02	; 2
    1588:	61 e0       	ldi	r22, 0x01	; 1
    158a:	0e 94 4a 08 	call	0x1094	; 0x1094 <Dio_vidSetPinVal>
    158e:	22 c0       	rjmp	.+68     	; 0x15d4 <LED_vidTurnOn+0x108>
		break;
	case LED_enuID_3:
		Dio_vidSetPinVal(LED_3_enuPin , DIO_u8HIGH);
    1590:	83 e0       	ldi	r24, 0x03	; 3
    1592:	61 e0       	ldi	r22, 0x01	; 1
    1594:	0e 94 4a 08 	call	0x1094	; 0x1094 <Dio_vidSetPinVal>
    1598:	1d c0       	rjmp	.+58     	; 0x15d4 <LED_vidTurnOn+0x108>
		break;
	case LED_enuID_4:
		Dio_vidSetPinVal(LED_4_enuPin , DIO_u8HIGH);
    159a:	84 e0       	ldi	r24, 0x04	; 4
    159c:	61 e0       	ldi	r22, 0x01	; 1
    159e:	0e 94 4a 08 	call	0x1094	; 0x1094 <Dio_vidSetPinVal>
    15a2:	18 c0       	rjmp	.+48     	; 0x15d4 <LED_vidTurnOn+0x108>
		break;
	case LED_enuID_5:
		Dio_vidSetPinVal(LED_5_enuPin , DIO_u8HIGH);
    15a4:	85 e0       	ldi	r24, 0x05	; 5
    15a6:	61 e0       	ldi	r22, 0x01	; 1
    15a8:	0e 94 4a 08 	call	0x1094	; 0x1094 <Dio_vidSetPinVal>
    15ac:	13 c0       	rjmp	.+38     	; 0x15d4 <LED_vidTurnOn+0x108>
		break;
	case LED_enuID_6:
		Dio_vidSetPinVal(LED_6_enuPin , DIO_u8HIGH);
    15ae:	86 e0       	ldi	r24, 0x06	; 6
    15b0:	61 e0       	ldi	r22, 0x01	; 1
    15b2:	0e 94 4a 08 	call	0x1094	; 0x1094 <Dio_vidSetPinVal>
    15b6:	0e c0       	rjmp	.+28     	; 0x15d4 <LED_vidTurnOn+0x108>
		break;
	case LED_enuID_7:
		Dio_vidSetPinVal(LED_7_enuPin , DIO_u8HIGH);
    15b8:	87 e0       	ldi	r24, 0x07	; 7
    15ba:	61 e0       	ldi	r22, 0x01	; 1
    15bc:	0e 94 4a 08 	call	0x1094	; 0x1094 <Dio_vidSetPinVal>
    15c0:	09 c0       	rjmp	.+18     	; 0x15d4 <LED_vidTurnOn+0x108>
		break;
	case LED_enuID_8:
		Dio_vidSetPinVal(LED_8_enuPin , DIO_u8HIGH);
    15c2:	88 e0       	ldi	r24, 0x08	; 8
    15c4:	61 e0       	ldi	r22, 0x01	; 1
    15c6:	0e 94 4a 08 	call	0x1094	; 0x1094 <Dio_vidSetPinVal>
    15ca:	04 c0       	rjmp	.+8      	; 0x15d4 <LED_vidTurnOn+0x108>
		break;
	case LED_enuID_9:
		Dio_vidSetPinVal(LED_9_enuPin , DIO_u8HIGH);
    15cc:	89 e0       	ldi	r24, 0x09	; 9
    15ce:	61 e0       	ldi	r22, 0x01	; 1
    15d0:	0e 94 4a 08 	call	0x1094	; 0x1094 <Dio_vidSetPinVal>
		break;
	default :
		break;
	}
}
    15d4:	0f 90       	pop	r0
    15d6:	0f 90       	pop	r0
    15d8:	0f 90       	pop	r0
    15da:	cf 91       	pop	r28
    15dc:	df 91       	pop	r29
    15de:	08 95       	ret

000015e0 <LED_vidTurnOff>:

void LED_vidTurnOff(LED_enuLEDId Copy_enuLEDId)
{
    15e0:	df 93       	push	r29
    15e2:	cf 93       	push	r28
    15e4:	00 d0       	rcall	.+0      	; 0x15e6 <LED_vidTurnOff+0x6>
    15e6:	0f 92       	push	r0
    15e8:	cd b7       	in	r28, 0x3d	; 61
    15ea:	de b7       	in	r29, 0x3e	; 62
    15ec:	89 83       	std	Y+1, r24	; 0x01
	switch(Copy_enuLEDId)
    15ee:	89 81       	ldd	r24, Y+1	; 0x01
    15f0:	28 2f       	mov	r18, r24
    15f2:	30 e0       	ldi	r19, 0x00	; 0
    15f4:	3b 83       	std	Y+3, r19	; 0x03
    15f6:	2a 83       	std	Y+2, r18	; 0x02
    15f8:	8a 81       	ldd	r24, Y+2	; 0x02
    15fa:	9b 81       	ldd	r25, Y+3	; 0x03
    15fc:	84 30       	cpi	r24, 0x04	; 4
    15fe:	91 05       	cpc	r25, r1
    1600:	09 f4       	brne	.+2      	; 0x1604 <LED_vidTurnOff+0x24>
    1602:	55 c0       	rjmp	.+170    	; 0x16ae <LED_vidTurnOff+0xce>
    1604:	2a 81       	ldd	r18, Y+2	; 0x02
    1606:	3b 81       	ldd	r19, Y+3	; 0x03
    1608:	25 30       	cpi	r18, 0x05	; 5
    160a:	31 05       	cpc	r19, r1
    160c:	dc f4       	brge	.+54     	; 0x1644 <LED_vidTurnOff+0x64>
    160e:	8a 81       	ldd	r24, Y+2	; 0x02
    1610:	9b 81       	ldd	r25, Y+3	; 0x03
    1612:	81 30       	cpi	r24, 0x01	; 1
    1614:	91 05       	cpc	r25, r1
    1616:	09 f4       	brne	.+2      	; 0x161a <LED_vidTurnOff+0x3a>
    1618:	3b c0       	rjmp	.+118    	; 0x1690 <LED_vidTurnOff+0xb0>
    161a:	2a 81       	ldd	r18, Y+2	; 0x02
    161c:	3b 81       	ldd	r19, Y+3	; 0x03
    161e:	22 30       	cpi	r18, 0x02	; 2
    1620:	31 05       	cpc	r19, r1
    1622:	2c f4       	brge	.+10     	; 0x162e <LED_vidTurnOff+0x4e>
    1624:	8a 81       	ldd	r24, Y+2	; 0x02
    1626:	9b 81       	ldd	r25, Y+3	; 0x03
    1628:	00 97       	sbiw	r24, 0x00	; 0
    162a:	69 f1       	breq	.+90     	; 0x1686 <LED_vidTurnOff+0xa6>
    162c:	5d c0       	rjmp	.+186    	; 0x16e8 <LED_vidTurnOff+0x108>
    162e:	2a 81       	ldd	r18, Y+2	; 0x02
    1630:	3b 81       	ldd	r19, Y+3	; 0x03
    1632:	22 30       	cpi	r18, 0x02	; 2
    1634:	31 05       	cpc	r19, r1
    1636:	89 f1       	breq	.+98     	; 0x169a <LED_vidTurnOff+0xba>
    1638:	8a 81       	ldd	r24, Y+2	; 0x02
    163a:	9b 81       	ldd	r25, Y+3	; 0x03
    163c:	83 30       	cpi	r24, 0x03	; 3
    163e:	91 05       	cpc	r25, r1
    1640:	89 f1       	breq	.+98     	; 0x16a4 <LED_vidTurnOff+0xc4>
    1642:	52 c0       	rjmp	.+164    	; 0x16e8 <LED_vidTurnOff+0x108>
    1644:	2a 81       	ldd	r18, Y+2	; 0x02
    1646:	3b 81       	ldd	r19, Y+3	; 0x03
    1648:	27 30       	cpi	r18, 0x07	; 7
    164a:	31 05       	cpc	r19, r1
    164c:	09 f4       	brne	.+2      	; 0x1650 <LED_vidTurnOff+0x70>
    164e:	3e c0       	rjmp	.+124    	; 0x16cc <LED_vidTurnOff+0xec>
    1650:	8a 81       	ldd	r24, Y+2	; 0x02
    1652:	9b 81       	ldd	r25, Y+3	; 0x03
    1654:	88 30       	cpi	r24, 0x08	; 8
    1656:	91 05       	cpc	r25, r1
    1658:	5c f4       	brge	.+22     	; 0x1670 <LED_vidTurnOff+0x90>
    165a:	2a 81       	ldd	r18, Y+2	; 0x02
    165c:	3b 81       	ldd	r19, Y+3	; 0x03
    165e:	25 30       	cpi	r18, 0x05	; 5
    1660:	31 05       	cpc	r19, r1
    1662:	51 f1       	breq	.+84     	; 0x16b8 <LED_vidTurnOff+0xd8>
    1664:	8a 81       	ldd	r24, Y+2	; 0x02
    1666:	9b 81       	ldd	r25, Y+3	; 0x03
    1668:	86 30       	cpi	r24, 0x06	; 6
    166a:	91 05       	cpc	r25, r1
    166c:	51 f1       	breq	.+84     	; 0x16c2 <LED_vidTurnOff+0xe2>
    166e:	3c c0       	rjmp	.+120    	; 0x16e8 <LED_vidTurnOff+0x108>
    1670:	2a 81       	ldd	r18, Y+2	; 0x02
    1672:	3b 81       	ldd	r19, Y+3	; 0x03
    1674:	28 30       	cpi	r18, 0x08	; 8
    1676:	31 05       	cpc	r19, r1
    1678:	71 f1       	breq	.+92     	; 0x16d6 <LED_vidTurnOff+0xf6>
    167a:	8a 81       	ldd	r24, Y+2	; 0x02
    167c:	9b 81       	ldd	r25, Y+3	; 0x03
    167e:	89 30       	cpi	r24, 0x09	; 9
    1680:	91 05       	cpc	r25, r1
    1682:	71 f1       	breq	.+92     	; 0x16e0 <LED_vidTurnOff+0x100>
    1684:	31 c0       	rjmp	.+98     	; 0x16e8 <LED_vidTurnOff+0x108>
		{
		case LED_enuID_0:
			Dio_vidSetPinVal(LED_0_enuPin , DIO_u8LOW);
    1686:	80 e0       	ldi	r24, 0x00	; 0
    1688:	60 e0       	ldi	r22, 0x00	; 0
    168a:	0e 94 4a 08 	call	0x1094	; 0x1094 <Dio_vidSetPinVal>
    168e:	2c c0       	rjmp	.+88     	; 0x16e8 <LED_vidTurnOff+0x108>
			break;
		case LED_enuID_1:
			Dio_vidSetPinVal(LED_1_enuPin , DIO_u8LOW);
    1690:	81 e0       	ldi	r24, 0x01	; 1
    1692:	60 e0       	ldi	r22, 0x00	; 0
    1694:	0e 94 4a 08 	call	0x1094	; 0x1094 <Dio_vidSetPinVal>
    1698:	27 c0       	rjmp	.+78     	; 0x16e8 <LED_vidTurnOff+0x108>
			break;
		case LED_enuID_2:
			Dio_vidSetPinVal(LED_2_enuPin , DIO_u8LOW);
    169a:	82 e0       	ldi	r24, 0x02	; 2
    169c:	60 e0       	ldi	r22, 0x00	; 0
    169e:	0e 94 4a 08 	call	0x1094	; 0x1094 <Dio_vidSetPinVal>
    16a2:	22 c0       	rjmp	.+68     	; 0x16e8 <LED_vidTurnOff+0x108>
			break;
		case LED_enuID_3:
			Dio_vidSetPinVal(LED_3_enuPin , DIO_u8LOW);
    16a4:	83 e0       	ldi	r24, 0x03	; 3
    16a6:	60 e0       	ldi	r22, 0x00	; 0
    16a8:	0e 94 4a 08 	call	0x1094	; 0x1094 <Dio_vidSetPinVal>
    16ac:	1d c0       	rjmp	.+58     	; 0x16e8 <LED_vidTurnOff+0x108>
			break;
		case LED_enuID_4:
			Dio_vidSetPinVal(LED_4_enuPin , DIO_u8LOW);
    16ae:	84 e0       	ldi	r24, 0x04	; 4
    16b0:	60 e0       	ldi	r22, 0x00	; 0
    16b2:	0e 94 4a 08 	call	0x1094	; 0x1094 <Dio_vidSetPinVal>
    16b6:	18 c0       	rjmp	.+48     	; 0x16e8 <LED_vidTurnOff+0x108>
			break;
		case LED_enuID_5:
			Dio_vidSetPinVal(LED_5_enuPin , DIO_u8LOW);
    16b8:	85 e0       	ldi	r24, 0x05	; 5
    16ba:	60 e0       	ldi	r22, 0x00	; 0
    16bc:	0e 94 4a 08 	call	0x1094	; 0x1094 <Dio_vidSetPinVal>
    16c0:	13 c0       	rjmp	.+38     	; 0x16e8 <LED_vidTurnOff+0x108>
			break;
		case LED_enuID_6:
			Dio_vidSetPinVal(LED_6_enuPin , DIO_u8LOW);
    16c2:	86 e0       	ldi	r24, 0x06	; 6
    16c4:	60 e0       	ldi	r22, 0x00	; 0
    16c6:	0e 94 4a 08 	call	0x1094	; 0x1094 <Dio_vidSetPinVal>
    16ca:	0e c0       	rjmp	.+28     	; 0x16e8 <LED_vidTurnOff+0x108>
			break;
		case LED_enuID_7:
			Dio_vidSetPinVal(LED_7_enuPin , DIO_u8LOW);
    16cc:	87 e0       	ldi	r24, 0x07	; 7
    16ce:	60 e0       	ldi	r22, 0x00	; 0
    16d0:	0e 94 4a 08 	call	0x1094	; 0x1094 <Dio_vidSetPinVal>
    16d4:	09 c0       	rjmp	.+18     	; 0x16e8 <LED_vidTurnOff+0x108>
			break;
		case LED_enuID_8:
			Dio_vidSetPinVal(LED_8_enuPin , DIO_u8LOW);
    16d6:	88 e0       	ldi	r24, 0x08	; 8
    16d8:	60 e0       	ldi	r22, 0x00	; 0
    16da:	0e 94 4a 08 	call	0x1094	; 0x1094 <Dio_vidSetPinVal>
    16de:	04 c0       	rjmp	.+8      	; 0x16e8 <LED_vidTurnOff+0x108>
			break;
		case LED_enuID_9:
			Dio_vidSetPinVal(LED_9_enuPin , DIO_u8LOW);
    16e0:	89 e0       	ldi	r24, 0x09	; 9
    16e2:	60 e0       	ldi	r22, 0x00	; 0
    16e4:	0e 94 4a 08 	call	0x1094	; 0x1094 <Dio_vidSetPinVal>
			break;
		default :
			break;
		}
}
    16e8:	0f 90       	pop	r0
    16ea:	0f 90       	pop	r0
    16ec:	0f 90       	pop	r0
    16ee:	cf 91       	pop	r28
    16f0:	df 91       	pop	r29
    16f2:	08 95       	ret

000016f4 <LED_vidToggle>:


void LED_vidToggle(LED_enuLEDId Copy_enuLEDId)
{
    16f4:	df 93       	push	r29
    16f6:	cf 93       	push	r28
    16f8:	00 d0       	rcall	.+0      	; 0x16fa <LED_vidToggle+0x6>
    16fa:	0f 92       	push	r0
    16fc:	cd b7       	in	r28, 0x3d	; 61
    16fe:	de b7       	in	r29, 0x3e	; 62
    1700:	89 83       	std	Y+1, r24	; 0x01
	switch(Copy_enuLEDId)
    1702:	89 81       	ldd	r24, Y+1	; 0x01
    1704:	28 2f       	mov	r18, r24
    1706:	30 e0       	ldi	r19, 0x00	; 0
    1708:	3b 83       	std	Y+3, r19	; 0x03
    170a:	2a 83       	std	Y+2, r18	; 0x02
    170c:	8a 81       	ldd	r24, Y+2	; 0x02
    170e:	9b 81       	ldd	r25, Y+3	; 0x03
    1710:	84 30       	cpi	r24, 0x04	; 4
    1712:	91 05       	cpc	r25, r1
    1714:	09 f4       	brne	.+2      	; 0x1718 <LED_vidToggle+0x24>
    1716:	4f c0       	rjmp	.+158    	; 0x17b6 <LED_vidToggle+0xc2>
    1718:	2a 81       	ldd	r18, Y+2	; 0x02
    171a:	3b 81       	ldd	r19, Y+3	; 0x03
    171c:	25 30       	cpi	r18, 0x05	; 5
    171e:	31 05       	cpc	r19, r1
    1720:	d4 f4       	brge	.+52     	; 0x1756 <LED_vidToggle+0x62>
    1722:	8a 81       	ldd	r24, Y+2	; 0x02
    1724:	9b 81       	ldd	r25, Y+3	; 0x03
    1726:	81 30       	cpi	r24, 0x01	; 1
    1728:	91 05       	cpc	r25, r1
    172a:	c9 f1       	breq	.+114    	; 0x179e <LED_vidToggle+0xaa>
    172c:	2a 81       	ldd	r18, Y+2	; 0x02
    172e:	3b 81       	ldd	r19, Y+3	; 0x03
    1730:	22 30       	cpi	r18, 0x02	; 2
    1732:	31 05       	cpc	r19, r1
    1734:	2c f4       	brge	.+10     	; 0x1740 <LED_vidToggle+0x4c>
    1736:	8a 81       	ldd	r24, Y+2	; 0x02
    1738:	9b 81       	ldd	r25, Y+3	; 0x03
    173a:	00 97       	sbiw	r24, 0x00	; 0
    173c:	61 f1       	breq	.+88     	; 0x1796 <LED_vidToggle+0xa2>
    173e:	52 c0       	rjmp	.+164    	; 0x17e4 <LED_vidToggle+0xf0>
    1740:	2a 81       	ldd	r18, Y+2	; 0x02
    1742:	3b 81       	ldd	r19, Y+3	; 0x03
    1744:	22 30       	cpi	r18, 0x02	; 2
    1746:	31 05       	cpc	r19, r1
    1748:	71 f1       	breq	.+92     	; 0x17a6 <LED_vidToggle+0xb2>
    174a:	8a 81       	ldd	r24, Y+2	; 0x02
    174c:	9b 81       	ldd	r25, Y+3	; 0x03
    174e:	83 30       	cpi	r24, 0x03	; 3
    1750:	91 05       	cpc	r25, r1
    1752:	69 f1       	breq	.+90     	; 0x17ae <LED_vidToggle+0xba>
    1754:	47 c0       	rjmp	.+142    	; 0x17e4 <LED_vidToggle+0xf0>
    1756:	2a 81       	ldd	r18, Y+2	; 0x02
    1758:	3b 81       	ldd	r19, Y+3	; 0x03
    175a:	27 30       	cpi	r18, 0x07	; 7
    175c:	31 05       	cpc	r19, r1
    175e:	b9 f1       	breq	.+110    	; 0x17ce <LED_vidToggle+0xda>
    1760:	8a 81       	ldd	r24, Y+2	; 0x02
    1762:	9b 81       	ldd	r25, Y+3	; 0x03
    1764:	88 30       	cpi	r24, 0x08	; 8
    1766:	91 05       	cpc	r25, r1
    1768:	5c f4       	brge	.+22     	; 0x1780 <LED_vidToggle+0x8c>
    176a:	2a 81       	ldd	r18, Y+2	; 0x02
    176c:	3b 81       	ldd	r19, Y+3	; 0x03
    176e:	25 30       	cpi	r18, 0x05	; 5
    1770:	31 05       	cpc	r19, r1
    1772:	29 f1       	breq	.+74     	; 0x17be <LED_vidToggle+0xca>
    1774:	8a 81       	ldd	r24, Y+2	; 0x02
    1776:	9b 81       	ldd	r25, Y+3	; 0x03
    1778:	86 30       	cpi	r24, 0x06	; 6
    177a:	91 05       	cpc	r25, r1
    177c:	21 f1       	breq	.+72     	; 0x17c6 <LED_vidToggle+0xd2>
    177e:	32 c0       	rjmp	.+100    	; 0x17e4 <LED_vidToggle+0xf0>
    1780:	2a 81       	ldd	r18, Y+2	; 0x02
    1782:	3b 81       	ldd	r19, Y+3	; 0x03
    1784:	28 30       	cpi	r18, 0x08	; 8
    1786:	31 05       	cpc	r19, r1
    1788:	31 f1       	breq	.+76     	; 0x17d6 <LED_vidToggle+0xe2>
    178a:	8a 81       	ldd	r24, Y+2	; 0x02
    178c:	9b 81       	ldd	r25, Y+3	; 0x03
    178e:	89 30       	cpi	r24, 0x09	; 9
    1790:	91 05       	cpc	r25, r1
    1792:	29 f1       	breq	.+74     	; 0x17de <LED_vidToggle+0xea>
    1794:	27 c0       	rjmp	.+78     	; 0x17e4 <LED_vidToggle+0xf0>
		{
		case LED_enuID_0:
			Dio_vidTogglePin(LED_0_enuPin);
    1796:	80 e0       	ldi	r24, 0x00	; 0
    1798:	0e 94 b6 09 	call	0x136c	; 0x136c <Dio_vidTogglePin>
    179c:	23 c0       	rjmp	.+70     	; 0x17e4 <LED_vidToggle+0xf0>
			break;
		case LED_enuID_1:
			Dio_vidTogglePin(LED_1_enuPin);
    179e:	81 e0       	ldi	r24, 0x01	; 1
    17a0:	0e 94 b6 09 	call	0x136c	; 0x136c <Dio_vidTogglePin>
    17a4:	1f c0       	rjmp	.+62     	; 0x17e4 <LED_vidToggle+0xf0>
			break;
		case LED_enuID_2:
			Dio_vidTogglePin(LED_2_enuPin);
    17a6:	82 e0       	ldi	r24, 0x02	; 2
    17a8:	0e 94 b6 09 	call	0x136c	; 0x136c <Dio_vidTogglePin>
    17ac:	1b c0       	rjmp	.+54     	; 0x17e4 <LED_vidToggle+0xf0>
			break;
		case LED_enuID_3:
			Dio_vidTogglePin(LED_3_enuPin);
    17ae:	83 e0       	ldi	r24, 0x03	; 3
    17b0:	0e 94 b6 09 	call	0x136c	; 0x136c <Dio_vidTogglePin>
    17b4:	17 c0       	rjmp	.+46     	; 0x17e4 <LED_vidToggle+0xf0>
			break;
		case LED_enuID_4:
			Dio_vidTogglePin(LED_4_enuPin);
    17b6:	84 e0       	ldi	r24, 0x04	; 4
    17b8:	0e 94 b6 09 	call	0x136c	; 0x136c <Dio_vidTogglePin>
    17bc:	13 c0       	rjmp	.+38     	; 0x17e4 <LED_vidToggle+0xf0>
			break;
		case LED_enuID_5:
			Dio_vidTogglePin(LED_5_enuPin);
    17be:	85 e0       	ldi	r24, 0x05	; 5
    17c0:	0e 94 b6 09 	call	0x136c	; 0x136c <Dio_vidTogglePin>
    17c4:	0f c0       	rjmp	.+30     	; 0x17e4 <LED_vidToggle+0xf0>
			break;
		case LED_enuID_6:
			Dio_vidTogglePin(LED_6_enuPin);
    17c6:	86 e0       	ldi	r24, 0x06	; 6
    17c8:	0e 94 b6 09 	call	0x136c	; 0x136c <Dio_vidTogglePin>
    17cc:	0b c0       	rjmp	.+22     	; 0x17e4 <LED_vidToggle+0xf0>
			break;
		case LED_enuID_7:
			Dio_vidTogglePin(LED_7_enuPin);
    17ce:	87 e0       	ldi	r24, 0x07	; 7
    17d0:	0e 94 b6 09 	call	0x136c	; 0x136c <Dio_vidTogglePin>
    17d4:	07 c0       	rjmp	.+14     	; 0x17e4 <LED_vidToggle+0xf0>
			break;
		case LED_enuID_8:
			Dio_vidTogglePin(LED_8_enuPin);
    17d6:	88 e0       	ldi	r24, 0x08	; 8
    17d8:	0e 94 b6 09 	call	0x136c	; 0x136c <Dio_vidTogglePin>
    17dc:	03 c0       	rjmp	.+6      	; 0x17e4 <LED_vidToggle+0xf0>
			break;
		case LED_enuID_9:
			Dio_vidTogglePin(LED_9_enuPin);
    17de:	89 e0       	ldi	r24, 0x09	; 9
    17e0:	0e 94 b6 09 	call	0x136c	; 0x136c <Dio_vidTogglePin>
			break;
		default :
			break;
		}
}
    17e4:	0f 90       	pop	r0
    17e6:	0f 90       	pop	r0
    17e8:	0f 90       	pop	r0
    17ea:	cf 91       	pop	r28
    17ec:	df 91       	pop	r29
    17ee:	08 95       	ret

000017f0 <lcd_init>:
static void process(void);
static status_RT lcd_sendPacket(u8 packet,u8 LCD_PACKET_type);
static void lcd_handler(void);

status_RT lcd_init(void)
{
    17f0:	df 93       	push	r29
    17f2:	cf 93       	push	r28
    17f4:	00 d0       	rcall	.+0      	; 0x17f6 <lcd_init+0x6>
    17f6:	cd b7       	in	r28, 0x3d	; 61
    17f8:	de b7       	in	r29, 0x3e	; 62
	status_RT status = RT_PENDING;
    17fa:	83 e0       	ldi	r24, 0x03	; 3
    17fc:	8a 83       	std	Y+2, r24	; 0x02
	for(u8 i=0;i<PIN_NUM;i++)
    17fe:	19 82       	std	Y+1, r1	; 0x01
    1800:	0d c0       	rjmp	.+26     	; 0x181c <lcd_init+0x2c>
	{
		Dio_vidSetPinVal(lcdCfg[i],DIO_u8LOW);
    1802:	89 81       	ldd	r24, Y+1	; 0x01
    1804:	88 2f       	mov	r24, r24
    1806:	90 e0       	ldi	r25, 0x00	; 0
    1808:	fc 01       	movw	r30, r24
    180a:	e3 57       	subi	r30, 0x73	; 115
    180c:	ff 4f       	sbci	r31, 0xFF	; 255
    180e:	80 81       	ld	r24, Z
    1810:	60 e0       	ldi	r22, 0x00	; 0
    1812:	0e 94 4a 08 	call	0x1094	; 0x1094 <Dio_vidSetPinVal>
static void lcd_handler(void);

status_RT lcd_init(void)
{
	status_RT status = RT_PENDING;
	for(u8 i=0;i<PIN_NUM;i++)
    1816:	89 81       	ldd	r24, Y+1	; 0x01
    1818:	8f 5f       	subi	r24, 0xFF	; 255
    181a:	89 83       	std	Y+1, r24	; 0x01
    181c:	89 81       	ldd	r24, Y+1	; 0x01
    181e:	8a 30       	cpi	r24, 0x0A	; 10
    1820:	80 f3       	brcs	.-32     	; 0x1802 <lcd_init+0x12>
	{
		Dio_vidSetPinVal(lcdCfg[i],DIO_u8LOW);
	}
	SwTimer_register_cbf(2,SwTimerMode_periodic,lcd_handler);
    1822:	2f e1       	ldi	r18, 0x1F	; 31
    1824:	3c e0       	ldi	r19, 0x0C	; 12
    1826:	82 e0       	ldi	r24, 0x02	; 2
    1828:	90 e0       	ldi	r25, 0x00	; 0
    182a:	60 e0       	ldi	r22, 0x00	; 0
    182c:	a9 01       	movw	r20, r18
    182e:	0e 94 49 00 	call	0x92	; 0x92 <SwTimer_register_cbf>
	return status;
    1832:	8a 81       	ldd	r24, Y+2	; 0x02
}
    1834:	0f 90       	pop	r0
    1836:	0f 90       	pop	r0
    1838:	cf 91       	pop	r28
    183a:	df 91       	pop	r29
    183c:	08 95       	ret

0000183e <lcd_handler>:


static void lcd_handler(void)
{
    183e:	df 93       	push	r29
    1840:	cf 93       	push	r28
    1842:	cd b7       	in	r28, 0x3d	; 61
    1844:	de b7       	in	r29, 0x3e	; 62
	if(isReady)
    1846:	80 91 76 03 	lds	r24, 0x0376
    184a:	88 23       	and	r24, r24
    184c:	19 f0       	breq	.+6      	; 0x1854 <lcd_handler+0x16>
	{
		process();
    184e:	0e 94 b5 0c 	call	0x196a	; 0x196a <process>
    1852:	02 c0       	rjmp	.+4      	; 0x1858 <lcd_handler+0x1a>
	}
	else
	{
		init_stateMachine();
    1854:	0e 94 2f 0c 	call	0x185e	; 0x185e <init_stateMachine>
	}
}
    1858:	cf 91       	pop	r28
    185a:	df 91       	pop	r29
    185c:	08 95       	ret

0000185e <init_stateMachine>:

static void init_stateMachine(void)
{
    185e:	df 93       	push	r29
    1860:	cf 93       	push	r28
    1862:	00 d0       	rcall	.+0      	; 0x1864 <init_stateMachine+0x6>
    1864:	0f 92       	push	r0
    1866:	cd b7       	in	r28, 0x3d	; 61
    1868:	de b7       	in	r29, 0x3e	; 62
	status_RT status;
	static u8 counter = 0;
	switch(lcdStateMachine)
    186a:	80 91 73 03 	lds	r24, 0x0373
    186e:	28 2f       	mov	r18, r24
    1870:	30 e0       	ldi	r19, 0x00	; 0
    1872:	3b 83       	std	Y+3, r19	; 0x03
    1874:	2a 83       	std	Y+2, r18	; 0x02
    1876:	8a 81       	ldd	r24, Y+2	; 0x02
    1878:	9b 81       	ldd	r25, Y+3	; 0x03
    187a:	82 30       	cpi	r24, 0x02	; 2
    187c:	91 05       	cpc	r25, r1
    187e:	09 f4       	brne	.+2      	; 0x1882 <init_stateMachine+0x24>
    1880:	42 c0       	rjmp	.+132    	; 0x1906 <init_stateMachine+0xa8>
    1882:	2a 81       	ldd	r18, Y+2	; 0x02
    1884:	3b 81       	ldd	r19, Y+3	; 0x03
    1886:	23 30       	cpi	r18, 0x03	; 3
    1888:	31 05       	cpc	r19, r1
    188a:	54 f4       	brge	.+20     	; 0x18a0 <init_stateMachine+0x42>
    188c:	8a 81       	ldd	r24, Y+2	; 0x02
    188e:	9b 81       	ldd	r25, Y+3	; 0x03
    1890:	00 97       	sbiw	r24, 0x00	; 0
    1892:	91 f0       	breq	.+36     	; 0x18b8 <init_stateMachine+0x5a>
    1894:	2a 81       	ldd	r18, Y+2	; 0x02
    1896:	3b 81       	ldd	r19, Y+3	; 0x03
    1898:	21 30       	cpi	r18, 0x01	; 1
    189a:	31 05       	cpc	r19, r1
    189c:	31 f1       	breq	.+76     	; 0x18ea <init_stateMachine+0x8c>
    189e:	5f c0       	rjmp	.+190    	; 0x195e <init_stateMachine+0x100>
    18a0:	8a 81       	ldd	r24, Y+2	; 0x02
    18a2:	9b 81       	ldd	r25, Y+3	; 0x03
    18a4:	83 30       	cpi	r24, 0x03	; 3
    18a6:	91 05       	cpc	r25, r1
    18a8:	e1 f1       	breq	.+120    	; 0x1922 <init_stateMachine+0xc4>
    18aa:	2a 81       	ldd	r18, Y+2	; 0x02
    18ac:	3b 81       	ldd	r19, Y+3	; 0x03
    18ae:	24 30       	cpi	r18, 0x04	; 4
    18b0:	31 05       	cpc	r19, r1
    18b2:	09 f4       	brne	.+2      	; 0x18b6 <init_stateMachine+0x58>
    18b4:	4e c0       	rjmp	.+156    	; 0x1952 <init_stateMachine+0xf4>
    18b6:	53 c0       	rjmp	.+166    	; 0x195e <init_stateMachine+0x100>
	{
	case lcdStateMachine_initialWait:
		if(counter == 30)
    18b8:	80 91 77 03 	lds	r24, 0x0377
    18bc:	8e 31       	cpi	r24, 0x1E	; 30
    18be:	79 f4       	brne	.+30     	; 0x18de <init_stateMachine+0x80>
		{
			status = lcd_sendPacket(LCD_u8FUNCTION_SET_8BITS_2LINES_5X7_DOTS,LCD_PACKET_COMMAND);
    18c0:	88 e3       	ldi	r24, 0x38	; 56
    18c2:	60 e0       	ldi	r22, 0x00	; 0
    18c4:	0e 94 f5 0c 	call	0x19ea	; 0x19ea <lcd_sendPacket>
    18c8:	89 83       	std	Y+1, r24	; 0x01
			if(status == RT_SUCCESS)
    18ca:	89 81       	ldd	r24, Y+1	; 0x01
    18cc:	88 23       	and	r24, r24
    18ce:	09 f0       	breq	.+2      	; 0x18d2 <init_stateMachine+0x74>
    18d0:	46 c0       	rjmp	.+140    	; 0x195e <init_stateMachine+0x100>
			{
				lcdStateMachine = lcdStateMachine_functionSet;
    18d2:	81 e0       	ldi	r24, 0x01	; 1
    18d4:	80 93 73 03 	sts	0x0373, r24
				counter = 0;
    18d8:	10 92 77 03 	sts	0x0377, r1
    18dc:	40 c0       	rjmp	.+128    	; 0x195e <init_stateMachine+0x100>
			}
		}
		else
		{
			counter++;
    18de:	80 91 77 03 	lds	r24, 0x0377
    18e2:	8f 5f       	subi	r24, 0xFF	; 255
    18e4:	80 93 77 03 	sts	0x0377, r24
    18e8:	3a c0       	rjmp	.+116    	; 0x195e <init_stateMachine+0x100>
		}
		break;
	case lcdStateMachine_functionSet:
		status = lcd_sendPacket(LCD_u8DISPLAY_ON_OFF_CONTORL_DISP_ON_CURSOR_OFF,LCD_PACKET_COMMAND);
    18ea:	8c e0       	ldi	r24, 0x0C	; 12
    18ec:	60 e0       	ldi	r22, 0x00	; 0
    18ee:	0e 94 f5 0c 	call	0x19ea	; 0x19ea <lcd_sendPacket>
    18f2:	89 83       	std	Y+1, r24	; 0x01
		if(status == RT_SUCCESS)
    18f4:	89 81       	ldd	r24, Y+1	; 0x01
    18f6:	88 23       	and	r24, r24
    18f8:	91 f5       	brne	.+100    	; 0x195e <init_stateMachine+0x100>
		{
			lcdStateMachine = lcdStateMachine_displayControl;
    18fa:	82 e0       	ldi	r24, 0x02	; 2
    18fc:	80 93 73 03 	sts	0x0373, r24
			counter = 0;
    1900:	10 92 77 03 	sts	0x0377, r1
    1904:	2c c0       	rjmp	.+88     	; 0x195e <init_stateMachine+0x100>
		}
		break;
	case lcdStateMachine_displayControl:
		status = lcd_sendPacket(LCD_u8CLEAR_SCREEN_CMD,LCD_PACKET_COMMAND);
    1906:	81 e0       	ldi	r24, 0x01	; 1
    1908:	60 e0       	ldi	r22, 0x00	; 0
    190a:	0e 94 f5 0c 	call	0x19ea	; 0x19ea <lcd_sendPacket>
    190e:	89 83       	std	Y+1, r24	; 0x01
		if(status == RT_SUCCESS)
    1910:	89 81       	ldd	r24, Y+1	; 0x01
    1912:	88 23       	and	r24, r24
    1914:	21 f5       	brne	.+72     	; 0x195e <init_stateMachine+0x100>
		{
			lcdStateMachine = lcdStateMachine_displayClear;
    1916:	83 e0       	ldi	r24, 0x03	; 3
    1918:	80 93 73 03 	sts	0x0373, r24
			counter = 0;
    191c:	10 92 77 03 	sts	0x0377, r1
    1920:	1e c0       	rjmp	.+60     	; 0x195e <init_stateMachine+0x100>
		}
		break;
	case lcdStateMachine_displayClear:
		if(counter == 1)
    1922:	80 91 77 03 	lds	r24, 0x0377
    1926:	81 30       	cpi	r24, 0x01	; 1
    1928:	71 f4       	brne	.+28     	; 0x1946 <init_stateMachine+0xe8>
		{
			status = lcd_sendPacket(LCD_u8ENTRY_MODE_SET_INC_NO_SHIFT_CMD,LCD_PACKET_COMMAND);
    192a:	86 e0       	ldi	r24, 0x06	; 6
    192c:	60 e0       	ldi	r22, 0x00	; 0
    192e:	0e 94 f5 0c 	call	0x19ea	; 0x19ea <lcd_sendPacket>
    1932:	89 83       	std	Y+1, r24	; 0x01
			if(status == RT_SUCCESS)
    1934:	89 81       	ldd	r24, Y+1	; 0x01
    1936:	88 23       	and	r24, r24
    1938:	91 f4       	brne	.+36     	; 0x195e <init_stateMachine+0x100>
			{
				lcdStateMachine = lcdStateMachine_entryModeSet;
    193a:	84 e0       	ldi	r24, 0x04	; 4
    193c:	80 93 73 03 	sts	0x0373, r24
				counter = 0;
    1940:	10 92 77 03 	sts	0x0377, r1
    1944:	0c c0       	rjmp	.+24     	; 0x195e <init_stateMachine+0x100>
			}
		}
		else
		{
			counter++;
    1946:	80 91 77 03 	lds	r24, 0x0377
    194a:	8f 5f       	subi	r24, 0xFF	; 255
    194c:	80 93 77 03 	sts	0x0377, r24
    1950:	06 c0       	rjmp	.+12     	; 0x195e <init_stateMachine+0x100>
		}
		break;
	case lcdStateMachine_entryModeSet:
		lcdStateMachine = lcdStateMachine_ready;
    1952:	85 e0       	ldi	r24, 0x05	; 5
    1954:	80 93 73 03 	sts	0x0373, r24
		isReady = 1;
    1958:	81 e0       	ldi	r24, 0x01	; 1
    195a:	80 93 76 03 	sts	0x0376, r24
		break;
	case lcdStateMachine_ready:
		break;
	}
}
    195e:	0f 90       	pop	r0
    1960:	0f 90       	pop	r0
    1962:	0f 90       	pop	r0
    1964:	cf 91       	pop	r28
    1966:	df 91       	pop	r29
    1968:	08 95       	ret

0000196a <process>:

static void process(void)
{
    196a:	df 93       	push	r29
    196c:	cf 93       	push	r28
    196e:	0f 92       	push	r0
    1970:	cd b7       	in	r28, 0x3d	; 61
    1972:	de b7       	in	r29, 0x3e	; 62
	status_RT status;
	if(lcdState == lcdState_writeData)
    1974:	80 91 74 03 	lds	r24, 0x0374
    1978:	81 30       	cpi	r24, 0x01	; 1
    197a:	21 f5       	brne	.+72     	; 0x19c4 <process+0x5a>
	{
		if(lcdBuffer[lcdBufferInd])
    197c:	80 91 75 03 	lds	r24, 0x0375
    1980:	88 2f       	mov	r24, r24
    1982:	90 e0       	ldi	r25, 0x00	; 0
    1984:	fc 01       	movw	r30, r24
    1986:	e7 58       	subi	r30, 0x87	; 135
    1988:	fc 4f       	sbci	r31, 0xFC	; 252
    198a:	80 81       	ld	r24, Z
    198c:	88 23       	and	r24, r24
    198e:	a9 f0       	breq	.+42     	; 0x19ba <process+0x50>
		{
			status = lcd_sendPacket(lcdBuffer[lcdBufferInd],LCD_PACKET_DATA);
    1990:	80 91 75 03 	lds	r24, 0x0375
    1994:	88 2f       	mov	r24, r24
    1996:	90 e0       	ldi	r25, 0x00	; 0
    1998:	fc 01       	movw	r30, r24
    199a:	e7 58       	subi	r30, 0x87	; 135
    199c:	fc 4f       	sbci	r31, 0xFC	; 252
    199e:	80 81       	ld	r24, Z
    19a0:	61 e0       	ldi	r22, 0x01	; 1
    19a2:	0e 94 f5 0c 	call	0x19ea	; 0x19ea <lcd_sendPacket>
    19a6:	89 83       	std	Y+1, r24	; 0x01
			if(status == RT_SUCCESS)
    19a8:	89 81       	ldd	r24, Y+1	; 0x01
    19aa:	88 23       	and	r24, r24
    19ac:	d1 f4       	brne	.+52     	; 0x19e2 <process+0x78>
			{
				lcdBufferInd++;
    19ae:	80 91 75 03 	lds	r24, 0x0375
    19b2:	8f 5f       	subi	r24, 0xFF	; 255
    19b4:	80 93 75 03 	sts	0x0375, r24
    19b8:	14 c0       	rjmp	.+40     	; 0x19e2 <process+0x78>
			}
		}
		else
		{
			lcdBufferInd = 0;
    19ba:	10 92 75 03 	sts	0x0375, r1
			lcdState = lcdState_idle;
    19be:	10 92 74 03 	sts	0x0374, r1
    19c2:	0f c0       	rjmp	.+30     	; 0x19e2 <process+0x78>
		}
	}
	else if(lcdState == lcdState_writeCommand)
    19c4:	80 91 74 03 	lds	r24, 0x0374
    19c8:	82 30       	cpi	r24, 0x02	; 2
    19ca:	59 f4       	brne	.+22     	; 0x19e2 <process+0x78>
	{
		status = lcd_sendPacket(lcdBuffer[0],LCD_PACKET_COMMAND);
    19cc:	80 91 79 03 	lds	r24, 0x0379
    19d0:	60 e0       	ldi	r22, 0x00	; 0
    19d2:	0e 94 f5 0c 	call	0x19ea	; 0x19ea <lcd_sendPacket>
    19d6:	89 83       	std	Y+1, r24	; 0x01
		if(status == RT_SUCCESS)
    19d8:	89 81       	ldd	r24, Y+1	; 0x01
    19da:	88 23       	and	r24, r24
    19dc:	11 f4       	brne	.+4      	; 0x19e2 <process+0x78>
		{
			lcdState = lcdState_idle;
    19de:	10 92 74 03 	sts	0x0374, r1
		}
	}
}
    19e2:	0f 90       	pop	r0
    19e4:	cf 91       	pop	r28
    19e6:	df 91       	pop	r29
    19e8:	08 95       	ret

000019ea <lcd_sendPacket>:

static status_RT lcd_sendPacket(u8 packet,u8 LCD_PACKET_type)
{
    19ea:	df 93       	push	r29
    19ec:	cf 93       	push	r28
    19ee:	00 d0       	rcall	.+0      	; 0x19f0 <lcd_sendPacket+0x6>
    19f0:	0f 92       	push	r0
    19f2:	cd b7       	in	r28, 0x3d	; 61
    19f4:	de b7       	in	r29, 0x3e	; 62
    19f6:	8a 83       	std	Y+2, r24	; 0x02
    19f8:	6b 83       	std	Y+3, r22	; 0x03
	status_RT status = RT_SUCCESS;
    19fa:	19 82       	std	Y+1, r1	; 0x01
	static u8 state = 0;
	if(state == 0)
    19fc:	80 91 78 03 	lds	r24, 0x0378
    1a00:	88 23       	and	r24, r24
    1a02:	09 f0       	breq	.+2      	; 0x1a06 <lcd_sendPacket+0x1c>
    1a04:	b4 c0       	rjmp	.+360    	; 0x1b6e <lcd_sendPacket+0x184>
	{
		if(LCD_PACKET_type == LCD_PACKET_COMMAND)
    1a06:	8b 81       	ldd	r24, Y+3	; 0x03
    1a08:	88 23       	and	r24, r24
    1a0a:	31 f4       	brne	.+12     	; 0x1a18 <lcd_sendPacket+0x2e>
		{
			Dio_vidSetPinVal(lcdCfg[RS],DIO_u8LOW);
    1a0c:	80 91 8d 00 	lds	r24, 0x008D
    1a10:	60 e0       	ldi	r22, 0x00	; 0
    1a12:	0e 94 4a 08 	call	0x1094	; 0x1094 <Dio_vidSetPinVal>
    1a16:	05 c0       	rjmp	.+10     	; 0x1a22 <lcd_sendPacket+0x38>
		}
		else
		{
			Dio_vidSetPinVal(lcdCfg[RS],DIO_u8HIGH);
    1a18:	80 91 8d 00 	lds	r24, 0x008D
    1a1c:	61 e0       	ldi	r22, 0x01	; 1
    1a1e:	0e 94 4a 08 	call	0x1094	; 0x1094 <Dio_vidSetPinVal>
		}
		Dio_vidSetPinVal(lcdCfg[EN],DIO_u8HIGH);
    1a22:	80 91 8e 00 	lds	r24, 0x008E
    1a26:	61 e0       	ldi	r22, 0x01	; 1
    1a28:	0e 94 4a 08 	call	0x1094	; 0x1094 <Dio_vidSetPinVal>
		if((packet >> 7) & 1)
    1a2c:	8a 81       	ldd	r24, Y+2	; 0x02
    1a2e:	88 23       	and	r24, r24
    1a30:	34 f4       	brge	.+12     	; 0x1a3e <lcd_sendPacket+0x54>
		{
			Dio_vidSetPinVal(lcdCfg[D7],DIO_u8HIGH);
    1a32:	80 91 8f 00 	lds	r24, 0x008F
    1a36:	61 e0       	ldi	r22, 0x01	; 1
    1a38:	0e 94 4a 08 	call	0x1094	; 0x1094 <Dio_vidSetPinVal>
    1a3c:	05 c0       	rjmp	.+10     	; 0x1a48 <lcd_sendPacket+0x5e>
		}
		else
		{
			Dio_vidSetPinVal(lcdCfg[D7],DIO_u8LOW);
    1a3e:	80 91 8f 00 	lds	r24, 0x008F
    1a42:	60 e0       	ldi	r22, 0x00	; 0
    1a44:	0e 94 4a 08 	call	0x1094	; 0x1094 <Dio_vidSetPinVal>
		}
		if((packet >> 6) & 1)
    1a48:	8a 81       	ldd	r24, Y+2	; 0x02
    1a4a:	82 95       	swap	r24
    1a4c:	86 95       	lsr	r24
    1a4e:	86 95       	lsr	r24
    1a50:	83 70       	andi	r24, 0x03	; 3
    1a52:	88 2f       	mov	r24, r24
    1a54:	90 e0       	ldi	r25, 0x00	; 0
    1a56:	81 70       	andi	r24, 0x01	; 1
    1a58:	90 70       	andi	r25, 0x00	; 0
    1a5a:	88 23       	and	r24, r24
    1a5c:	31 f0       	breq	.+12     	; 0x1a6a <lcd_sendPacket+0x80>
		{
			Dio_vidSetPinVal(lcdCfg[D6],DIO_u8HIGH);
    1a5e:	80 91 90 00 	lds	r24, 0x0090
    1a62:	61 e0       	ldi	r22, 0x01	; 1
    1a64:	0e 94 4a 08 	call	0x1094	; 0x1094 <Dio_vidSetPinVal>
    1a68:	05 c0       	rjmp	.+10     	; 0x1a74 <lcd_sendPacket+0x8a>
		}
		else
		{
			Dio_vidSetPinVal(lcdCfg[D6],DIO_u8LOW);
    1a6a:	80 91 90 00 	lds	r24, 0x0090
    1a6e:	60 e0       	ldi	r22, 0x00	; 0
    1a70:	0e 94 4a 08 	call	0x1094	; 0x1094 <Dio_vidSetPinVal>
		}
		if((packet >> 5) & 1)
    1a74:	8a 81       	ldd	r24, Y+2	; 0x02
    1a76:	82 95       	swap	r24
    1a78:	86 95       	lsr	r24
    1a7a:	87 70       	andi	r24, 0x07	; 7
    1a7c:	88 2f       	mov	r24, r24
    1a7e:	90 e0       	ldi	r25, 0x00	; 0
    1a80:	81 70       	andi	r24, 0x01	; 1
    1a82:	90 70       	andi	r25, 0x00	; 0
    1a84:	88 23       	and	r24, r24
    1a86:	31 f0       	breq	.+12     	; 0x1a94 <lcd_sendPacket+0xaa>
		{
			Dio_vidSetPinVal(lcdCfg[D5],DIO_u8HIGH);
    1a88:	80 91 91 00 	lds	r24, 0x0091
    1a8c:	61 e0       	ldi	r22, 0x01	; 1
    1a8e:	0e 94 4a 08 	call	0x1094	; 0x1094 <Dio_vidSetPinVal>
    1a92:	05 c0       	rjmp	.+10     	; 0x1a9e <lcd_sendPacket+0xb4>
		}
		else
		{
			Dio_vidSetPinVal(lcdCfg[D5],DIO_u8LOW);
    1a94:	80 91 91 00 	lds	r24, 0x0091
    1a98:	60 e0       	ldi	r22, 0x00	; 0
    1a9a:	0e 94 4a 08 	call	0x1094	; 0x1094 <Dio_vidSetPinVal>
		}
		if((packet >> 4) & 1)
    1a9e:	8a 81       	ldd	r24, Y+2	; 0x02
    1aa0:	82 95       	swap	r24
    1aa2:	8f 70       	andi	r24, 0x0F	; 15
    1aa4:	88 2f       	mov	r24, r24
    1aa6:	90 e0       	ldi	r25, 0x00	; 0
    1aa8:	81 70       	andi	r24, 0x01	; 1
    1aaa:	90 70       	andi	r25, 0x00	; 0
    1aac:	88 23       	and	r24, r24
    1aae:	31 f0       	breq	.+12     	; 0x1abc <lcd_sendPacket+0xd2>
		{
			Dio_vidSetPinVal(lcdCfg[D4],DIO_u8HIGH);
    1ab0:	80 91 92 00 	lds	r24, 0x0092
    1ab4:	61 e0       	ldi	r22, 0x01	; 1
    1ab6:	0e 94 4a 08 	call	0x1094	; 0x1094 <Dio_vidSetPinVal>
    1aba:	05 c0       	rjmp	.+10     	; 0x1ac6 <lcd_sendPacket+0xdc>
		}
		else
		{
			Dio_vidSetPinVal(lcdCfg[D4],DIO_u8LOW);
    1abc:	80 91 92 00 	lds	r24, 0x0092
    1ac0:	60 e0       	ldi	r22, 0x00	; 0
    1ac2:	0e 94 4a 08 	call	0x1094	; 0x1094 <Dio_vidSetPinVal>
		}
		if((packet >> 3) & 1)
    1ac6:	8a 81       	ldd	r24, Y+2	; 0x02
    1ac8:	86 95       	lsr	r24
    1aca:	86 95       	lsr	r24
    1acc:	86 95       	lsr	r24
    1ace:	88 2f       	mov	r24, r24
    1ad0:	90 e0       	ldi	r25, 0x00	; 0
    1ad2:	81 70       	andi	r24, 0x01	; 1
    1ad4:	90 70       	andi	r25, 0x00	; 0
    1ad6:	88 23       	and	r24, r24
    1ad8:	31 f0       	breq	.+12     	; 0x1ae6 <lcd_sendPacket+0xfc>
		{
			Dio_vidSetPinVal(lcdCfg[D3],DIO_u8HIGH);
    1ada:	80 91 93 00 	lds	r24, 0x0093
    1ade:	61 e0       	ldi	r22, 0x01	; 1
    1ae0:	0e 94 4a 08 	call	0x1094	; 0x1094 <Dio_vidSetPinVal>
    1ae4:	05 c0       	rjmp	.+10     	; 0x1af0 <lcd_sendPacket+0x106>
		}
		else
		{
			Dio_vidSetPinVal(lcdCfg[D3],DIO_u8LOW);
    1ae6:	80 91 93 00 	lds	r24, 0x0093
    1aea:	60 e0       	ldi	r22, 0x00	; 0
    1aec:	0e 94 4a 08 	call	0x1094	; 0x1094 <Dio_vidSetPinVal>
		}
		if((packet >> 2) & 1)
    1af0:	8a 81       	ldd	r24, Y+2	; 0x02
    1af2:	86 95       	lsr	r24
    1af4:	86 95       	lsr	r24
    1af6:	88 2f       	mov	r24, r24
    1af8:	90 e0       	ldi	r25, 0x00	; 0
    1afa:	81 70       	andi	r24, 0x01	; 1
    1afc:	90 70       	andi	r25, 0x00	; 0
    1afe:	88 23       	and	r24, r24
    1b00:	31 f0       	breq	.+12     	; 0x1b0e <lcd_sendPacket+0x124>
		{
			Dio_vidSetPinVal(lcdCfg[D2],DIO_u8HIGH);
    1b02:	80 91 94 00 	lds	r24, 0x0094
    1b06:	61 e0       	ldi	r22, 0x01	; 1
    1b08:	0e 94 4a 08 	call	0x1094	; 0x1094 <Dio_vidSetPinVal>
    1b0c:	05 c0       	rjmp	.+10     	; 0x1b18 <lcd_sendPacket+0x12e>
		}
		else
		{
			Dio_vidSetPinVal(lcdCfg[D2],DIO_u8LOW);
    1b0e:	80 91 94 00 	lds	r24, 0x0094
    1b12:	60 e0       	ldi	r22, 0x00	; 0
    1b14:	0e 94 4a 08 	call	0x1094	; 0x1094 <Dio_vidSetPinVal>
		}
		if((packet >> 1) & 1)
    1b18:	8a 81       	ldd	r24, Y+2	; 0x02
    1b1a:	86 95       	lsr	r24
    1b1c:	88 2f       	mov	r24, r24
    1b1e:	90 e0       	ldi	r25, 0x00	; 0
    1b20:	81 70       	andi	r24, 0x01	; 1
    1b22:	90 70       	andi	r25, 0x00	; 0
    1b24:	88 23       	and	r24, r24
    1b26:	31 f0       	breq	.+12     	; 0x1b34 <lcd_sendPacket+0x14a>
		{
			Dio_vidSetPinVal(lcdCfg[D1],DIO_u8HIGH);
    1b28:	80 91 95 00 	lds	r24, 0x0095
    1b2c:	61 e0       	ldi	r22, 0x01	; 1
    1b2e:	0e 94 4a 08 	call	0x1094	; 0x1094 <Dio_vidSetPinVal>
    1b32:	05 c0       	rjmp	.+10     	; 0x1b3e <lcd_sendPacket+0x154>
		}
		else
		{
			Dio_vidSetPinVal(lcdCfg[D1],DIO_u8LOW);
    1b34:	80 91 95 00 	lds	r24, 0x0095
    1b38:	60 e0       	ldi	r22, 0x00	; 0
    1b3a:	0e 94 4a 08 	call	0x1094	; 0x1094 <Dio_vidSetPinVal>
		}
		if((packet >> 0) & 1)
    1b3e:	8a 81       	ldd	r24, Y+2	; 0x02
    1b40:	88 2f       	mov	r24, r24
    1b42:	90 e0       	ldi	r25, 0x00	; 0
    1b44:	81 70       	andi	r24, 0x01	; 1
    1b46:	90 70       	andi	r25, 0x00	; 0
    1b48:	88 23       	and	r24, r24
    1b4a:	31 f0       	breq	.+12     	; 0x1b58 <lcd_sendPacket+0x16e>
		{
			Dio_vidSetPinVal(lcdCfg[D0],DIO_u8HIGH);
    1b4c:	80 91 96 00 	lds	r24, 0x0096
    1b50:	61 e0       	ldi	r22, 0x01	; 1
    1b52:	0e 94 4a 08 	call	0x1094	; 0x1094 <Dio_vidSetPinVal>
    1b56:	05 c0       	rjmp	.+10     	; 0x1b62 <lcd_sendPacket+0x178>
		}
		else
		{
			Dio_vidSetPinVal(lcdCfg[D0],DIO_u8LOW);
    1b58:	80 91 96 00 	lds	r24, 0x0096
    1b5c:	60 e0       	ldi	r22, 0x00	; 0
    1b5e:	0e 94 4a 08 	call	0x1094	; 0x1094 <Dio_vidSetPinVal>
		}
		state = 1;
    1b62:	81 e0       	ldi	r24, 0x01	; 1
    1b64:	80 93 78 03 	sts	0x0378, r24
		status = RT_PENDING;
    1b68:	83 e0       	ldi	r24, 0x03	; 3
    1b6a:	89 83       	std	Y+1, r24	; 0x01
    1b6c:	18 c0       	rjmp	.+48     	; 0x1b9e <lcd_sendPacket+0x1b4>
	}
	else if(state == 1)
    1b6e:	80 91 78 03 	lds	r24, 0x0378
    1b72:	81 30       	cpi	r24, 0x01	; 1
    1b74:	69 f4       	brne	.+26     	; 0x1b90 <lcd_sendPacket+0x1a6>
	{
		Dio_vidSetPinVal(lcdCfg[EN],DIO_u8LOW);
    1b76:	80 91 8e 00 	lds	r24, 0x008E
    1b7a:	60 e0       	ldi	r22, 0x00	; 0
    1b7c:	0e 94 4a 08 	call	0x1094	; 0x1094 <Dio_vidSetPinVal>
		status = RT_BUSY;
    1b80:	84 e0       	ldi	r24, 0x04	; 4
    1b82:	89 83       	std	Y+1, r24	; 0x01
		state++;
    1b84:	80 91 78 03 	lds	r24, 0x0378
    1b88:	8f 5f       	subi	r24, 0xFF	; 255
    1b8a:	80 93 78 03 	sts	0x0378, r24
    1b8e:	07 c0       	rjmp	.+14     	; 0x1b9e <lcd_sendPacket+0x1b4>
	}
	else if(state==2)
    1b90:	80 91 78 03 	lds	r24, 0x0378
    1b94:	82 30       	cpi	r24, 0x02	; 2
    1b96:	19 f4       	brne	.+6      	; 0x1b9e <lcd_sendPacket+0x1b4>
	{
		//trace_printf("%x\n",packet);
		state = 0;
    1b98:	10 92 78 03 	sts	0x0378, r1
		status = RT_SUCCESS;
    1b9c:	19 82       	std	Y+1, r1	; 0x01
	}
	return status;
    1b9e:	89 81       	ldd	r24, Y+1	; 0x01
}
    1ba0:	0f 90       	pop	r0
    1ba2:	0f 90       	pop	r0
    1ba4:	0f 90       	pop	r0
    1ba6:	cf 91       	pop	r28
    1ba8:	df 91       	pop	r29
    1baa:	08 95       	ret

00001bac <lcd_clear>:

status_RT lcd_clear(void)
{
    1bac:	df 93       	push	r29
    1bae:	cf 93       	push	r28
    1bb0:	0f 92       	push	r0
    1bb2:	cd b7       	in	r28, 0x3d	; 61
    1bb4:	de b7       	in	r29, 0x3e	; 62
	status_RT status = RT_PENDING;
    1bb6:	83 e0       	ldi	r24, 0x03	; 3
    1bb8:	89 83       	std	Y+1, r24	; 0x01
	if(isReady)
    1bba:	80 91 76 03 	lds	r24, 0x0376
    1bbe:	88 23       	and	r24, r24
    1bc0:	71 f0       	breq	.+28     	; 0x1bde <lcd_clear+0x32>
	{
		if(lcdState == lcdState_idle)
    1bc2:	80 91 74 03 	lds	r24, 0x0374
    1bc6:	88 23       	and	r24, r24
    1bc8:	39 f4       	brne	.+14     	; 0x1bd8 <lcd_clear+0x2c>
		{
			lcdState = lcdState_writeCommand;
    1bca:	82 e0       	ldi	r24, 0x02	; 2
    1bcc:	80 93 74 03 	sts	0x0374, r24
			lcdBuffer[0] = LCD_u8CLEAR_SCREEN_CMD;
    1bd0:	81 e0       	ldi	r24, 0x01	; 1
    1bd2:	80 93 79 03 	sts	0x0379, r24
    1bd6:	05 c0       	rjmp	.+10     	; 0x1be2 <lcd_clear+0x36>
		}
		else
		{
			status = RT_BUSY;
    1bd8:	84 e0       	ldi	r24, 0x04	; 4
    1bda:	89 83       	std	Y+1, r24	; 0x01
    1bdc:	02 c0       	rjmp	.+4      	; 0x1be2 <lcd_clear+0x36>
		}
	}
	else
	{
		status = RT_ERROR;
    1bde:	81 e0       	ldi	r24, 0x01	; 1
    1be0:	89 83       	std	Y+1, r24	; 0x01
	}
	return status;
    1be2:	89 81       	ldd	r24, Y+1	; 0x01
}
    1be4:	0f 90       	pop	r0
    1be6:	cf 91       	pop	r28
    1be8:	df 91       	pop	r29
    1bea:	08 95       	ret

00001bec <lcd_writeString>:

status_RT lcd_writeString(const u8* const str)
{
    1bec:	df 93       	push	r29
    1bee:	cf 93       	push	r28
    1bf0:	00 d0       	rcall	.+0      	; 0x1bf2 <lcd_writeString+0x6>
    1bf2:	00 d0       	rcall	.+0      	; 0x1bf4 <lcd_writeString+0x8>
    1bf4:	cd b7       	in	r28, 0x3d	; 61
    1bf6:	de b7       	in	r29, 0x3e	; 62
    1bf8:	9c 83       	std	Y+4, r25	; 0x04
    1bfa:	8b 83       	std	Y+3, r24	; 0x03
	status_RT status = RT_PENDING;
    1bfc:	83 e0       	ldi	r24, 0x03	; 3
    1bfe:	8a 83       	std	Y+2, r24	; 0x02
	u8 i = 0;
    1c00:	19 82       	std	Y+1, r1	; 0x01
	if(isReady)
    1c02:	80 91 76 03 	lds	r24, 0x0376
    1c06:	88 23       	and	r24, r24
    1c08:	91 f1       	breq	.+100    	; 0x1c6e <lcd_writeString+0x82>
	{
		if(lcdState == lcdState_idle)
    1c0a:	80 91 74 03 	lds	r24, 0x0374
    1c0e:	88 23       	and	r24, r24
    1c10:	59 f5       	brne	.+86     	; 0x1c68 <lcd_writeString+0x7c>
		{
			lcdState = lcdState_writeData;
    1c12:	81 e0       	ldi	r24, 0x01	; 1
    1c14:	80 93 74 03 	sts	0x0374, r24
			for(i=0;str[i];i++)
    1c18:	19 82       	std	Y+1, r1	; 0x01
    1c1a:	13 c0       	rjmp	.+38     	; 0x1c42 <lcd_writeString+0x56>
			{
				lcdBuffer[i] = str[i];
    1c1c:	89 81       	ldd	r24, Y+1	; 0x01
    1c1e:	48 2f       	mov	r20, r24
    1c20:	50 e0       	ldi	r21, 0x00	; 0
    1c22:	89 81       	ldd	r24, Y+1	; 0x01
    1c24:	28 2f       	mov	r18, r24
    1c26:	30 e0       	ldi	r19, 0x00	; 0
    1c28:	8b 81       	ldd	r24, Y+3	; 0x03
    1c2a:	9c 81       	ldd	r25, Y+4	; 0x04
    1c2c:	fc 01       	movw	r30, r24
    1c2e:	e2 0f       	add	r30, r18
    1c30:	f3 1f       	adc	r31, r19
    1c32:	80 81       	ld	r24, Z
    1c34:	fa 01       	movw	r30, r20
    1c36:	e7 58       	subi	r30, 0x87	; 135
    1c38:	fc 4f       	sbci	r31, 0xFC	; 252
    1c3a:	80 83       	st	Z, r24
	if(isReady)
	{
		if(lcdState == lcdState_idle)
		{
			lcdState = lcdState_writeData;
			for(i=0;str[i];i++)
    1c3c:	89 81       	ldd	r24, Y+1	; 0x01
    1c3e:	8f 5f       	subi	r24, 0xFF	; 255
    1c40:	89 83       	std	Y+1, r24	; 0x01
    1c42:	89 81       	ldd	r24, Y+1	; 0x01
    1c44:	28 2f       	mov	r18, r24
    1c46:	30 e0       	ldi	r19, 0x00	; 0
    1c48:	8b 81       	ldd	r24, Y+3	; 0x03
    1c4a:	9c 81       	ldd	r25, Y+4	; 0x04
    1c4c:	fc 01       	movw	r30, r24
    1c4e:	e2 0f       	add	r30, r18
    1c50:	f3 1f       	adc	r31, r19
    1c52:	80 81       	ld	r24, Z
    1c54:	88 23       	and	r24, r24
    1c56:	11 f7       	brne	.-60     	; 0x1c1c <lcd_writeString+0x30>
			{
				lcdBuffer[i] = str[i];
			}
			lcdBuffer[i] = '\0';
    1c58:	89 81       	ldd	r24, Y+1	; 0x01
    1c5a:	88 2f       	mov	r24, r24
    1c5c:	90 e0       	ldi	r25, 0x00	; 0
    1c5e:	fc 01       	movw	r30, r24
    1c60:	e7 58       	subi	r30, 0x87	; 135
    1c62:	fc 4f       	sbci	r31, 0xFC	; 252
    1c64:	10 82       	st	Z, r1
    1c66:	05 c0       	rjmp	.+10     	; 0x1c72 <lcd_writeString+0x86>
		}
		else
		{
			status = RT_BUSY;
    1c68:	84 e0       	ldi	r24, 0x04	; 4
    1c6a:	8a 83       	std	Y+2, r24	; 0x02
    1c6c:	02 c0       	rjmp	.+4      	; 0x1c72 <lcd_writeString+0x86>
		}
	}
	else
	{
		status = RT_ERROR;
    1c6e:	81 e0       	ldi	r24, 0x01	; 1
    1c70:	8a 83       	std	Y+2, r24	; 0x02
	}
	return status;
    1c72:	8a 81       	ldd	r24, Y+2	; 0x02
}
    1c74:	0f 90       	pop	r0
    1c76:	0f 90       	pop	r0
    1c78:	0f 90       	pop	r0
    1c7a:	0f 90       	pop	r0
    1c7c:	cf 91       	pop	r28
    1c7e:	df 91       	pop	r29
    1c80:	08 95       	ret

00001c82 <Lcd_WriteChar>:

status_RT Lcd_WriteChar(u8 Copy_u8Packet, lcdState_t Copy_u8Type){
    1c82:	df 93       	push	r29
    1c84:	cf 93       	push	r28
    1c86:	00 d0       	rcall	.+0      	; 0x1c88 <Lcd_WriteChar+0x6>
    1c88:	00 d0       	rcall	.+0      	; 0x1c8a <Lcd_WriteChar+0x8>
    1c8a:	cd b7       	in	r28, 0x3d	; 61
    1c8c:	de b7       	in	r29, 0x3e	; 62
    1c8e:	8b 83       	std	Y+3, r24	; 0x03
    1c90:	6c 83       	std	Y+4, r22	; 0x04

	status_RT status = RT_PENDING;
    1c92:	83 e0       	ldi	r24, 0x03	; 3
    1c94:	8a 83       	std	Y+2, r24	; 0x02
	u8 i = 0;
    1c96:	19 82       	std	Y+1, r1	; 0x01

	if (Copy_u8Type == LCD_PACKET_COMMAND || Copy_u8Type == LCD_PACKET_DATA )
    1c98:	8c 81       	ldd	r24, Y+4	; 0x04
    1c9a:	88 23       	and	r24, r24
    1c9c:	19 f0       	breq	.+6      	; 0x1ca4 <Lcd_WriteChar+0x22>
    1c9e:	8c 81       	ldd	r24, Y+4	; 0x04
    1ca0:	81 30       	cpi	r24, 0x01	; 1
    1ca2:	d1 f4       	brne	.+52     	; 0x1cd8 <Lcd_WriteChar+0x56>
	{
		if(isReady)
    1ca4:	80 91 76 03 	lds	r24, 0x0376
    1ca8:	88 23       	and	r24, r24
    1caa:	99 f0       	breq	.+38     	; 0x1cd2 <Lcd_WriteChar+0x50>
		{
			if(lcdState == lcdState_idle)
    1cac:	80 91 74 03 	lds	r24, 0x0374
    1cb0:	88 23       	and	r24, r24
    1cb2:	61 f4       	brne	.+24     	; 0x1ccc <Lcd_WriteChar+0x4a>
			{
				lcdState = Copy_u8Type;
    1cb4:	8c 81       	ldd	r24, Y+4	; 0x04
    1cb6:	80 93 74 03 	sts	0x0374, r24
				lcdBuffer[i] = Copy_u8Packet;
    1cba:	89 81       	ldd	r24, Y+1	; 0x01
    1cbc:	88 2f       	mov	r24, r24
    1cbe:	90 e0       	ldi	r25, 0x00	; 0
    1cc0:	fc 01       	movw	r30, r24
    1cc2:	e7 58       	subi	r30, 0x87	; 135
    1cc4:	fc 4f       	sbci	r31, 0xFC	; 252
    1cc6:	8b 81       	ldd	r24, Y+3	; 0x03
    1cc8:	80 83       	st	Z, r24
    1cca:	08 c0       	rjmp	.+16     	; 0x1cdc <Lcd_WriteChar+0x5a>
			}
			else
			{
				status = RT_BUSY;
    1ccc:	84 e0       	ldi	r24, 0x04	; 4
    1cce:	8a 83       	std	Y+2, r24	; 0x02
    1cd0:	05 c0       	rjmp	.+10     	; 0x1cdc <Lcd_WriteChar+0x5a>
			}
		}
		else
		{
			status = RT_ERROR;
    1cd2:	81 e0       	ldi	r24, 0x01	; 1
    1cd4:	8a 83       	std	Y+2, r24	; 0x02
    1cd6:	02 c0       	rjmp	.+4      	; 0x1cdc <Lcd_WriteChar+0x5a>
		}
	}
	else
	{
		status = RT_ERROR;
    1cd8:	81 e0       	ldi	r24, 0x01	; 1
    1cda:	8a 83       	std	Y+2, r24	; 0x02
	}

	return status;
    1cdc:	8a 81       	ldd	r24, Y+2	; 0x02
}
    1cde:	0f 90       	pop	r0
    1ce0:	0f 90       	pop	r0
    1ce2:	0f 90       	pop	r0
    1ce4:	0f 90       	pop	r0
    1ce6:	cf 91       	pop	r28
    1ce8:	df 91       	pop	r29
    1cea:	08 95       	ret

00001cec <keypad_init>:
static void keypad_handler(void);
static u8 NO_KEY_count = 0;


status_RT keypad_init(void)
{
    1cec:	df 93       	push	r29
    1cee:	cf 93       	push	r28
    1cf0:	00 d0       	rcall	.+0      	; 0x1cf2 <keypad_init+0x6>
    1cf2:	cd b7       	in	r28, 0x3d	; 61
    1cf4:	de b7       	in	r29, 0x3e	; 62
	status_RT status = RT_SUCCESS;
    1cf6:	1a 82       	std	Y+2, r1	; 0x02

	for(u8 i=0;i<4;i++)
    1cf8:	19 82       	std	Y+1, r1	; 0x01
    1cfa:	52 c0       	rjmp	.+164    	; 0x1da0 <keypad_init+0xb4>
	{
		Dio_vidSetPinVal(keypadCfg[i],DIO_u8HIGH);
    1cfc:	89 81       	ldd	r24, Y+1	; 0x01
    1cfe:	88 2f       	mov	r24, r24
    1d00:	90 e0       	ldi	r25, 0x00	; 0
    1d02:	fc 01       	movw	r30, r24
    1d04:	e9 55       	subi	r30, 0x59	; 89
    1d06:	ff 4f       	sbci	r31, 0xFF	; 255
    1d08:	80 81       	ld	r24, Z
    1d0a:	61 e0       	ldi	r22, 0x01	; 1
    1d0c:	0e 94 4a 08 	call	0x1094	; 0x1094 <Dio_vidSetPinVal>
		keysDebounceCount[i][0].prev = keyState_notPressed;
    1d10:	89 81       	ldd	r24, Y+1	; 0x01
    1d12:	28 2f       	mov	r18, r24
    1d14:	30 e0       	ldi	r19, 0x00	; 0
    1d16:	c9 01       	movw	r24, r18
    1d18:	88 0f       	add	r24, r24
    1d1a:	99 1f       	adc	r25, r25
    1d1c:	82 0f       	add	r24, r18
    1d1e:	93 1f       	adc	r25, r19
    1d20:	88 0f       	add	r24, r24
    1d22:	99 1f       	adc	r25, r25
    1d24:	88 0f       	add	r24, r24
    1d26:	99 1f       	adc	r25, r25
    1d28:	fc 01       	movw	r30, r24
    1d2a:	e3 56       	subi	r30, 0x63	; 99
    1d2c:	fc 4f       	sbci	r31, 0xFC	; 252
    1d2e:	81 e0       	ldi	r24, 0x01	; 1
    1d30:	80 83       	st	Z, r24
		keysDebounceCount[i][1].prev = keyState_notPressed;
    1d32:	89 81       	ldd	r24, Y+1	; 0x01
    1d34:	28 2f       	mov	r18, r24
    1d36:	30 e0       	ldi	r19, 0x00	; 0
    1d38:	c9 01       	movw	r24, r18
    1d3a:	88 0f       	add	r24, r24
    1d3c:	99 1f       	adc	r25, r25
    1d3e:	82 0f       	add	r24, r18
    1d40:	93 1f       	adc	r25, r19
    1d42:	01 96       	adiw	r24, 0x01	; 1
    1d44:	88 0f       	add	r24, r24
    1d46:	99 1f       	adc	r25, r25
    1d48:	88 0f       	add	r24, r24
    1d4a:	99 1f       	adc	r25, r25
    1d4c:	fc 01       	movw	r30, r24
    1d4e:	e4 56       	subi	r30, 0x64	; 100
    1d50:	fc 4f       	sbci	r31, 0xFC	; 252
    1d52:	81 e0       	ldi	r24, 0x01	; 1
    1d54:	80 83       	st	Z, r24
		keysDebounceCount[i][2].prev = keyState_notPressed;
    1d56:	89 81       	ldd	r24, Y+1	; 0x01
    1d58:	28 2f       	mov	r18, r24
    1d5a:	30 e0       	ldi	r19, 0x00	; 0
    1d5c:	c9 01       	movw	r24, r18
    1d5e:	88 0f       	add	r24, r24
    1d60:	99 1f       	adc	r25, r25
    1d62:	82 0f       	add	r24, r18
    1d64:	93 1f       	adc	r25, r19
    1d66:	88 0f       	add	r24, r24
    1d68:	99 1f       	adc	r25, r25
    1d6a:	88 0f       	add	r24, r24
    1d6c:	99 1f       	adc	r25, r25
    1d6e:	fc 01       	movw	r30, r24
    1d70:	ed 55       	subi	r30, 0x5D	; 93
    1d72:	fc 4f       	sbci	r31, 0xFC	; 252
    1d74:	81 e0       	ldi	r24, 0x01	; 1
    1d76:	80 83       	st	Z, r24
		keysDebounceCount[i][3].prev = keyState_notPressed;
    1d78:	89 81       	ldd	r24, Y+1	; 0x01
    1d7a:	28 2f       	mov	r18, r24
    1d7c:	30 e0       	ldi	r19, 0x00	; 0
    1d7e:	c9 01       	movw	r24, r18
    1d80:	88 0f       	add	r24, r24
    1d82:	99 1f       	adc	r25, r25
    1d84:	82 0f       	add	r24, r18
    1d86:	93 1f       	adc	r25, r19
    1d88:	88 0f       	add	r24, r24
    1d8a:	99 1f       	adc	r25, r25
    1d8c:	88 0f       	add	r24, r24
    1d8e:	99 1f       	adc	r25, r25
    1d90:	fc 01       	movw	r30, r24
    1d92:	ea 55       	subi	r30, 0x5A	; 90
    1d94:	fc 4f       	sbci	r31, 0xFC	; 252
    1d96:	81 e0       	ldi	r24, 0x01	; 1
    1d98:	80 83       	st	Z, r24

status_RT keypad_init(void)
{
	status_RT status = RT_SUCCESS;

	for(u8 i=0;i<4;i++)
    1d9a:	89 81       	ldd	r24, Y+1	; 0x01
    1d9c:	8f 5f       	subi	r24, 0xFF	; 255
    1d9e:	89 83       	std	Y+1, r24	; 0x01
    1da0:	89 81       	ldd	r24, Y+1	; 0x01
    1da2:	84 30       	cpi	r24, 0x04	; 4
    1da4:	08 f4       	brcc	.+2      	; 0x1da8 <keypad_init+0xbc>
    1da6:	aa cf       	rjmp	.-172    	; 0x1cfc <keypad_init+0x10>
		keysDebounceCount[i][0].prev = keyState_notPressed;
		keysDebounceCount[i][1].prev = keyState_notPressed;
		keysDebounceCount[i][2].prev = keyState_notPressed;
		keysDebounceCount[i][3].prev = keyState_notPressed;
	}
	if(status == RT_SUCCESS)
    1da8:	8a 81       	ldd	r24, Y+2	; 0x02
    1daa:	88 23       	and	r24, r24
    1dac:	79 f4       	brne	.+30     	; 0x1dcc <keypad_init+0xe0>
	{
		status = SwTimer_register_cbf(10,SwTimerMode_periodic,keypad_handler);
    1dae:	2c ee       	ldi	r18, 0xEC	; 236
    1db0:	3e e0       	ldi	r19, 0x0E	; 14
    1db2:	8a e0       	ldi	r24, 0x0A	; 10
    1db4:	90 e0       	ldi	r25, 0x00	; 0
    1db6:	60 e0       	ldi	r22, 0x00	; 0
    1db8:	a9 01       	movw	r20, r18
    1dba:	0e 94 49 00 	call	0x92	; 0x92 <SwTimer_register_cbf>
    1dbe:	8a 83       	std	Y+2, r24	; 0x02
		if(status == RT_SUCCESS)
    1dc0:	8a 81       	ldd	r24, Y+2	; 0x02
    1dc2:	88 23       	and	r24, r24
    1dc4:	19 f4       	brne	.+6      	; 0x1dcc <keypad_init+0xe0>
		{
			isReady = 1;
    1dc6:	81 e0       	ldi	r24, 0x01	; 1
    1dc8:	80 93 9a 03 	sts	0x039A, r24
		}
	}
	return status;
    1dcc:	8a 81       	ldd	r24, Y+2	; 0x02
}
    1dce:	0f 90       	pop	r0
    1dd0:	0f 90       	pop	r0
    1dd2:	cf 91       	pop	r28
    1dd4:	df 91       	pop	r29
    1dd6:	08 95       	ret

00001dd8 <keypad_handler>:


static void keypad_handler(void)
{
    1dd8:	df 93       	push	r29
    1dda:	cf 93       	push	r28
    1ddc:	00 d0       	rcall	.+0      	; 0x1dde <keypad_handler+0x6>
    1dde:	00 d0       	rcall	.+0      	; 0x1de0 <keypad_handler+0x8>
    1de0:	cd b7       	in	r28, 0x3d	; 61
    1de2:	de b7       	in	r29, 0x3e	; 62
	if(isReady)
    1de4:	80 91 9a 03 	lds	r24, 0x039A
    1de8:	88 23       	and	r24, r24
    1dea:	09 f4       	brne	.+2      	; 0x1dee <keypad_handler+0x16>
    1dec:	79 c4       	rjmp	.+2290   	; 0x26e0 <keypad_handler+0x908>
	{
		u8 colsVal = 0;
    1dee:	1a 82       	std	Y+2, r1	; 0x02
		u8 ind;
		for(ind=0;ind<4;ind++)
    1df0:	19 82       	std	Y+1, r1	; 0x01
    1df2:	4d c4       	rjmp	.+2202   	; 0x268e <keypad_handler+0x8b6>
		{
			colsVal = 0;
    1df4:	1a 82       	std	Y+2, r1	; 0x02
			Dio_vidSetPinVal(keypadCfg[0],DIO_u8HIGH);
    1df6:	80 91 a7 00 	lds	r24, 0x00A7
    1dfa:	61 e0       	ldi	r22, 0x01	; 1
    1dfc:	0e 94 4a 08 	call	0x1094	; 0x1094 <Dio_vidSetPinVal>
			Dio_vidSetPinVal(keypadCfg[1],DIO_u8HIGH);
    1e00:	80 91 a8 00 	lds	r24, 0x00A8
    1e04:	61 e0       	ldi	r22, 0x01	; 1
    1e06:	0e 94 4a 08 	call	0x1094	; 0x1094 <Dio_vidSetPinVal>
			Dio_vidSetPinVal(keypadCfg[2],DIO_u8HIGH);
    1e0a:	80 91 a9 00 	lds	r24, 0x00A9
    1e0e:	61 e0       	ldi	r22, 0x01	; 1
    1e10:	0e 94 4a 08 	call	0x1094	; 0x1094 <Dio_vidSetPinVal>
			Dio_vidSetPinVal(keypadCfg[3],DIO_u8HIGH);
    1e14:	80 91 aa 00 	lds	r24, 0x00AA
    1e18:	61 e0       	ldi	r22, 0x01	; 1
    1e1a:	0e 94 4a 08 	call	0x1094	; 0x1094 <Dio_vidSetPinVal>

			Dio_vidSetPinVal(keypadCfg[(ind+0)%4],DIO_u8LOW);
    1e1e:	89 81       	ldd	r24, Y+1	; 0x01
    1e20:	88 2f       	mov	r24, r24
    1e22:	90 e0       	ldi	r25, 0x00	; 0
    1e24:	83 70       	andi	r24, 0x03	; 3
    1e26:	90 70       	andi	r25, 0x00	; 0
    1e28:	fc 01       	movw	r30, r24
    1e2a:	e9 55       	subi	r30, 0x59	; 89
    1e2c:	ff 4f       	sbci	r31, 0xFF	; 255
    1e2e:	80 81       	ld	r24, Z
    1e30:	60 e0       	ldi	r22, 0x00	; 0
    1e32:	0e 94 4a 08 	call	0x1094	; 0x1094 <Dio_vidSetPinVal>
			Dio_vidSetPinVal(keypadCfg[(ind+1)%4],DIO_u8HIGH);
    1e36:	89 81       	ldd	r24, Y+1	; 0x01
    1e38:	88 2f       	mov	r24, r24
    1e3a:	90 e0       	ldi	r25, 0x00	; 0
    1e3c:	01 96       	adiw	r24, 0x01	; 1
    1e3e:	24 e0       	ldi	r18, 0x04	; 4
    1e40:	30 e0       	ldi	r19, 0x00	; 0
    1e42:	b9 01       	movw	r22, r18
    1e44:	0e 94 82 16 	call	0x2d04	; 0x2d04 <__divmodhi4>
    1e48:	fc 01       	movw	r30, r24
    1e4a:	e9 55       	subi	r30, 0x59	; 89
    1e4c:	ff 4f       	sbci	r31, 0xFF	; 255
    1e4e:	80 81       	ld	r24, Z
    1e50:	61 e0       	ldi	r22, 0x01	; 1
    1e52:	0e 94 4a 08 	call	0x1094	; 0x1094 <Dio_vidSetPinVal>
			Dio_vidSetPinVal(keypadCfg[(ind+2)%4],DIO_u8HIGH);
    1e56:	89 81       	ldd	r24, Y+1	; 0x01
    1e58:	88 2f       	mov	r24, r24
    1e5a:	90 e0       	ldi	r25, 0x00	; 0
    1e5c:	02 96       	adiw	r24, 0x02	; 2
    1e5e:	24 e0       	ldi	r18, 0x04	; 4
    1e60:	30 e0       	ldi	r19, 0x00	; 0
    1e62:	b9 01       	movw	r22, r18
    1e64:	0e 94 82 16 	call	0x2d04	; 0x2d04 <__divmodhi4>
    1e68:	fc 01       	movw	r30, r24
    1e6a:	e9 55       	subi	r30, 0x59	; 89
    1e6c:	ff 4f       	sbci	r31, 0xFF	; 255
    1e6e:	80 81       	ld	r24, Z
    1e70:	61 e0       	ldi	r22, 0x01	; 1
    1e72:	0e 94 4a 08 	call	0x1094	; 0x1094 <Dio_vidSetPinVal>
			Dio_vidSetPinVal(keypadCfg[(ind+3)%4],DIO_u8HIGH);
    1e76:	89 81       	ldd	r24, Y+1	; 0x01
    1e78:	88 2f       	mov	r24, r24
    1e7a:	90 e0       	ldi	r25, 0x00	; 0
    1e7c:	03 96       	adiw	r24, 0x03	; 3
    1e7e:	24 e0       	ldi	r18, 0x04	; 4
    1e80:	30 e0       	ldi	r19, 0x00	; 0
    1e82:	b9 01       	movw	r22, r18
    1e84:	0e 94 82 16 	call	0x2d04	; 0x2d04 <__divmodhi4>
    1e88:	fc 01       	movw	r30, r24
    1e8a:	e9 55       	subi	r30, 0x59	; 89
    1e8c:	ff 4f       	sbci	r31, 0xFF	; 255
    1e8e:	80 81       	ld	r24, Z
    1e90:	61 e0       	ldi	r22, 0x01	; 1
    1e92:	0e 94 4a 08 	call	0x1094	; 0x1094 <Dio_vidSetPinVal>

			colsVal |= Dio_u8GetPinVal(keypadCfg[COL_1 + 4]) << 0;
    1e96:	80 91 ab 00 	lds	r24, 0x00AB
    1e9a:	0e 94 35 09 	call	0x126a	; 0x126a <Dio_u8GetPinVal>
    1e9e:	98 2f       	mov	r25, r24
    1ea0:	8a 81       	ldd	r24, Y+2	; 0x02
    1ea2:	89 2b       	or	r24, r25
    1ea4:	8a 83       	std	Y+2, r24	; 0x02
			colsVal |= Dio_u8GetPinVal(keypadCfg[COL_2 + 4]) << 1;
    1ea6:	80 91 ac 00 	lds	r24, 0x00AC
    1eaa:	0e 94 35 09 	call	0x126a	; 0x126a <Dio_u8GetPinVal>
    1eae:	88 2f       	mov	r24, r24
    1eb0:	90 e0       	ldi	r25, 0x00	; 0
    1eb2:	88 0f       	add	r24, r24
    1eb4:	99 1f       	adc	r25, r25
    1eb6:	98 2f       	mov	r25, r24
    1eb8:	8a 81       	ldd	r24, Y+2	; 0x02
    1eba:	89 2b       	or	r24, r25
    1ebc:	8a 83       	std	Y+2, r24	; 0x02
			colsVal |= Dio_u8GetPinVal(keypadCfg[COL_3 + 4]) << 2;
    1ebe:	80 91 ad 00 	lds	r24, 0x00AD
    1ec2:	0e 94 35 09 	call	0x126a	; 0x126a <Dio_u8GetPinVal>
    1ec6:	88 2f       	mov	r24, r24
    1ec8:	90 e0       	ldi	r25, 0x00	; 0
    1eca:	88 0f       	add	r24, r24
    1ecc:	99 1f       	adc	r25, r25
    1ece:	88 0f       	add	r24, r24
    1ed0:	99 1f       	adc	r25, r25
    1ed2:	98 2f       	mov	r25, r24
    1ed4:	8a 81       	ldd	r24, Y+2	; 0x02
    1ed6:	89 2b       	or	r24, r25
    1ed8:	8a 83       	std	Y+2, r24	; 0x02
			colsVal |= Dio_u8GetPinVal(keypadCfg[COL_4 + 4]) << 3;
    1eda:	80 91 ae 00 	lds	r24, 0x00AE
    1ede:	0e 94 35 09 	call	0x126a	; 0x126a <Dio_u8GetPinVal>
    1ee2:	88 2f       	mov	r24, r24
    1ee4:	90 e0       	ldi	r25, 0x00	; 0
    1ee6:	88 0f       	add	r24, r24
    1ee8:	99 1f       	adc	r25, r25
    1eea:	88 0f       	add	r24, r24
    1eec:	99 1f       	adc	r25, r25
    1eee:	88 0f       	add	r24, r24
    1ef0:	99 1f       	adc	r25, r25
    1ef2:	98 2f       	mov	r25, r24
    1ef4:	8a 81       	ldd	r24, Y+2	; 0x02
    1ef6:	89 2b       	or	r24, r25
    1ef8:	8a 83       	std	Y+2, r24	; 0x02

			if(colsVal != 0x0F)
    1efa:	8a 81       	ldd	r24, Y+2	; 0x02
    1efc:	8f 30       	cpi	r24, 0x0F	; 15
    1efe:	09 f4       	brne	.+2      	; 0x1f02 <keypad_handler+0x12a>
    1f00:	c3 c3       	rjmp	.+1926   	; 0x2688 <keypad_handler+0x8b0>
			{
				switch(colsVal)
    1f02:	8a 81       	ldd	r24, Y+2	; 0x02
    1f04:	28 2f       	mov	r18, r24
    1f06:	30 e0       	ldi	r19, 0x00	; 0
    1f08:	3c 83       	std	Y+4, r19	; 0x04
    1f0a:	2b 83       	std	Y+3, r18	; 0x03
    1f0c:	8b 81       	ldd	r24, Y+3	; 0x03
    1f0e:	9c 81       	ldd	r25, Y+4	; 0x04
    1f10:	8b 30       	cpi	r24, 0x0B	; 11
    1f12:	91 05       	cpc	r25, r1
    1f14:	09 f4       	brne	.+2      	; 0x1f18 <keypad_handler+0x140>
    1f16:	eb c1       	rjmp	.+982    	; 0x22ee <keypad_handler+0x516>
    1f18:	2b 81       	ldd	r18, Y+3	; 0x03
    1f1a:	3c 81       	ldd	r19, Y+4	; 0x04
    1f1c:	2c 30       	cpi	r18, 0x0C	; 12
    1f1e:	31 05       	cpc	r19, r1
    1f20:	3c f4       	brge	.+14     	; 0x1f30 <keypad_handler+0x158>
    1f22:	8b 81       	ldd	r24, Y+3	; 0x03
    1f24:	9c 81       	ldd	r25, Y+4	; 0x04
    1f26:	87 30       	cpi	r24, 0x07	; 7
    1f28:	91 05       	cpc	r25, r1
    1f2a:	09 f4       	brne	.+2      	; 0x1f2e <keypad_handler+0x156>
    1f2c:	c7 c2       	rjmp	.+1422   	; 0x24bc <keypad_handler+0x6e4>
    1f2e:	b3 c3       	rjmp	.+1894   	; 0x2696 <keypad_handler+0x8be>
    1f30:	2b 81       	ldd	r18, Y+3	; 0x03
    1f32:	3c 81       	ldd	r19, Y+4	; 0x04
    1f34:	2d 30       	cpi	r18, 0x0D	; 13
    1f36:	31 05       	cpc	r19, r1
    1f38:	09 f4       	brne	.+2      	; 0x1f3c <keypad_handler+0x164>
    1f3a:	f1 c0       	rjmp	.+482    	; 0x211e <keypad_handler+0x346>
    1f3c:	8b 81       	ldd	r24, Y+3	; 0x03
    1f3e:	9c 81       	ldd	r25, Y+4	; 0x04
    1f40:	8e 30       	cpi	r24, 0x0E	; 14
    1f42:	91 05       	cpc	r25, r1
    1f44:	09 f0       	breq	.+2      	; 0x1f48 <keypad_handler+0x170>
    1f46:	a7 c3       	rjmp	.+1870   	; 0x2696 <keypad_handler+0x8be>
				{
				case 0x0E:
					keysDebounceCount[ind][0].cur = keyState_pressed;
    1f48:	89 81       	ldd	r24, Y+1	; 0x01
    1f4a:	28 2f       	mov	r18, r24
    1f4c:	30 e0       	ldi	r19, 0x00	; 0
    1f4e:	c9 01       	movw	r24, r18
    1f50:	88 0f       	add	r24, r24
    1f52:	99 1f       	adc	r25, r25
    1f54:	82 0f       	add	r24, r18
    1f56:	93 1f       	adc	r25, r19
    1f58:	88 0f       	add	r24, r24
    1f5a:	99 1f       	adc	r25, r25
    1f5c:	88 0f       	add	r24, r24
    1f5e:	99 1f       	adc	r25, r25
    1f60:	fc 01       	movw	r30, r24
    1f62:	e4 56       	subi	r30, 0x64	; 100
    1f64:	fc 4f       	sbci	r31, 0xFC	; 252
    1f66:	10 82       	st	Z, r1
					if(keysDebounceCount[ind][0].cur == keysDebounceCount[ind][0].prev)
    1f68:	89 81       	ldd	r24, Y+1	; 0x01
    1f6a:	28 2f       	mov	r18, r24
    1f6c:	30 e0       	ldi	r19, 0x00	; 0
    1f6e:	c9 01       	movw	r24, r18
    1f70:	88 0f       	add	r24, r24
    1f72:	99 1f       	adc	r25, r25
    1f74:	82 0f       	add	r24, r18
    1f76:	93 1f       	adc	r25, r19
    1f78:	88 0f       	add	r24, r24
    1f7a:	99 1f       	adc	r25, r25
    1f7c:	88 0f       	add	r24, r24
    1f7e:	99 1f       	adc	r25, r25
    1f80:	fc 01       	movw	r30, r24
    1f82:	e4 56       	subi	r30, 0x64	; 100
    1f84:	fc 4f       	sbci	r31, 0xFC	; 252
    1f86:	40 81       	ld	r20, Z
    1f88:	89 81       	ldd	r24, Y+1	; 0x01
    1f8a:	28 2f       	mov	r18, r24
    1f8c:	30 e0       	ldi	r19, 0x00	; 0
    1f8e:	c9 01       	movw	r24, r18
    1f90:	88 0f       	add	r24, r24
    1f92:	99 1f       	adc	r25, r25
    1f94:	82 0f       	add	r24, r18
    1f96:	93 1f       	adc	r25, r19
    1f98:	88 0f       	add	r24, r24
    1f9a:	99 1f       	adc	r25, r25
    1f9c:	88 0f       	add	r24, r24
    1f9e:	99 1f       	adc	r25, r25
    1fa0:	fc 01       	movw	r30, r24
    1fa2:	e3 56       	subi	r30, 0x63	; 99
    1fa4:	fc 4f       	sbci	r31, 0xFC	; 252
    1fa6:	80 81       	ld	r24, Z
    1fa8:	48 17       	cp	r20, r24
    1faa:	09 f0       	breq	.+2      	; 0x1fae <keypad_handler+0x1d6>
    1fac:	53 c0       	rjmp	.+166    	; 0x2054 <keypad_handler+0x27c>
					{
						keysDebounceCount[ind][0].count++;
    1fae:	89 81       	ldd	r24, Y+1	; 0x01
    1fb0:	28 2f       	mov	r18, r24
    1fb2:	30 e0       	ldi	r19, 0x00	; 0
    1fb4:	c9 01       	movw	r24, r18
    1fb6:	88 0f       	add	r24, r24
    1fb8:	99 1f       	adc	r25, r25
    1fba:	82 0f       	add	r24, r18
    1fbc:	93 1f       	adc	r25, r19
    1fbe:	88 0f       	add	r24, r24
    1fc0:	99 1f       	adc	r25, r25
    1fc2:	01 96       	adiw	r24, 0x01	; 1
    1fc4:	88 0f       	add	r24, r24
    1fc6:	99 1f       	adc	r25, r25
    1fc8:	fc 01       	movw	r30, r24
    1fca:	e4 56       	subi	r30, 0x64	; 100
    1fcc:	fc 4f       	sbci	r31, 0xFC	; 252
    1fce:	80 81       	ld	r24, Z
    1fd0:	48 2f       	mov	r20, r24
    1fd2:	4f 5f       	subi	r20, 0xFF	; 255
    1fd4:	c9 01       	movw	r24, r18
    1fd6:	88 0f       	add	r24, r24
    1fd8:	99 1f       	adc	r25, r25
    1fda:	82 0f       	add	r24, r18
    1fdc:	93 1f       	adc	r25, r19
    1fde:	88 0f       	add	r24, r24
    1fe0:	99 1f       	adc	r25, r25
    1fe2:	01 96       	adiw	r24, 0x01	; 1
    1fe4:	88 0f       	add	r24, r24
    1fe6:	99 1f       	adc	r25, r25
    1fe8:	fc 01       	movw	r30, r24
    1fea:	e4 56       	subi	r30, 0x64	; 100
    1fec:	fc 4f       	sbci	r31, 0xFC	; 252
    1fee:	40 83       	st	Z, r20
						if(keysDebounceCount[ind][0].count == 5)
    1ff0:	89 81       	ldd	r24, Y+1	; 0x01
    1ff2:	28 2f       	mov	r18, r24
    1ff4:	30 e0       	ldi	r19, 0x00	; 0
    1ff6:	c9 01       	movw	r24, r18
    1ff8:	88 0f       	add	r24, r24
    1ffa:	99 1f       	adc	r25, r25
    1ffc:	82 0f       	add	r24, r18
    1ffe:	93 1f       	adc	r25, r19
    2000:	88 0f       	add	r24, r24
    2002:	99 1f       	adc	r25, r25
    2004:	01 96       	adiw	r24, 0x01	; 1
    2006:	88 0f       	add	r24, r24
    2008:	99 1f       	adc	r25, r25
    200a:	fc 01       	movw	r30, r24
    200c:	e4 56       	subi	r30, 0x64	; 100
    200e:	fc 4f       	sbci	r31, 0xFC	; 252
    2010:	80 81       	ld	r24, Z
    2012:	85 30       	cpi	r24, 0x05	; 5
    2014:	81 f5       	brne	.+96     	; 0x2076 <keypad_handler+0x29e>
						{
							pressedKey = keypadkeysCfg[ind][0];
    2016:	89 81       	ldd	r24, Y+1	; 0x01
    2018:	88 2f       	mov	r24, r24
    201a:	90 e0       	ldi	r25, 0x00	; 0
    201c:	88 0f       	add	r24, r24
    201e:	99 1f       	adc	r25, r25
    2020:	88 0f       	add	r24, r24
    2022:	99 1f       	adc	r25, r25
    2024:	fc 01       	movw	r30, r24
    2026:	e9 56       	subi	r30, 0x69	; 105
    2028:	ff 4f       	sbci	r31, 0xFF	; 255
    202a:	80 81       	ld	r24, Z
    202c:	80 93 8b 00 	sts	0x008B, r24
							keysDebounceCount[ind][0].count = 0;
    2030:	89 81       	ldd	r24, Y+1	; 0x01
    2032:	28 2f       	mov	r18, r24
    2034:	30 e0       	ldi	r19, 0x00	; 0
    2036:	c9 01       	movw	r24, r18
    2038:	88 0f       	add	r24, r24
    203a:	99 1f       	adc	r25, r25
    203c:	82 0f       	add	r24, r18
    203e:	93 1f       	adc	r25, r19
    2040:	88 0f       	add	r24, r24
    2042:	99 1f       	adc	r25, r25
    2044:	01 96       	adiw	r24, 0x01	; 1
    2046:	88 0f       	add	r24, r24
    2048:	99 1f       	adc	r25, r25
    204a:	fc 01       	movw	r30, r24
    204c:	e4 56       	subi	r30, 0x64	; 100
    204e:	fc 4f       	sbci	r31, 0xFC	; 252
    2050:	10 82       	st	Z, r1
    2052:	11 c0       	rjmp	.+34     	; 0x2076 <keypad_handler+0x29e>
						}
					}
					else
					{
						keysDebounceCount[ind][0].count = 0;
    2054:	89 81       	ldd	r24, Y+1	; 0x01
    2056:	28 2f       	mov	r18, r24
    2058:	30 e0       	ldi	r19, 0x00	; 0
    205a:	c9 01       	movw	r24, r18
    205c:	88 0f       	add	r24, r24
    205e:	99 1f       	adc	r25, r25
    2060:	82 0f       	add	r24, r18
    2062:	93 1f       	adc	r25, r19
    2064:	88 0f       	add	r24, r24
    2066:	99 1f       	adc	r25, r25
    2068:	01 96       	adiw	r24, 0x01	; 1
    206a:	88 0f       	add	r24, r24
    206c:	99 1f       	adc	r25, r25
    206e:	fc 01       	movw	r30, r24
    2070:	e4 56       	subi	r30, 0x64	; 100
    2072:	fc 4f       	sbci	r31, 0xFC	; 252
    2074:	10 82       	st	Z, r1
					}
					keysDebounceCount[ind][0].prev = keysDebounceCount[ind][0].cur;
    2076:	89 81       	ldd	r24, Y+1	; 0x01
    2078:	48 2f       	mov	r20, r24
    207a:	50 e0       	ldi	r21, 0x00	; 0
    207c:	89 81       	ldd	r24, Y+1	; 0x01
    207e:	28 2f       	mov	r18, r24
    2080:	30 e0       	ldi	r19, 0x00	; 0
    2082:	c9 01       	movw	r24, r18
    2084:	88 0f       	add	r24, r24
    2086:	99 1f       	adc	r25, r25
    2088:	82 0f       	add	r24, r18
    208a:	93 1f       	adc	r25, r19
    208c:	88 0f       	add	r24, r24
    208e:	99 1f       	adc	r25, r25
    2090:	88 0f       	add	r24, r24
    2092:	99 1f       	adc	r25, r25
    2094:	fc 01       	movw	r30, r24
    2096:	e4 56       	subi	r30, 0x64	; 100
    2098:	fc 4f       	sbci	r31, 0xFC	; 252
    209a:	20 81       	ld	r18, Z
    209c:	ca 01       	movw	r24, r20
    209e:	88 0f       	add	r24, r24
    20a0:	99 1f       	adc	r25, r25
    20a2:	84 0f       	add	r24, r20
    20a4:	95 1f       	adc	r25, r21
    20a6:	88 0f       	add	r24, r24
    20a8:	99 1f       	adc	r25, r25
    20aa:	88 0f       	add	r24, r24
    20ac:	99 1f       	adc	r25, r25
    20ae:	fc 01       	movw	r30, r24
    20b0:	e3 56       	subi	r30, 0x63	; 99
    20b2:	fc 4f       	sbci	r31, 0xFC	; 252
    20b4:	20 83       	st	Z, r18
					keysDebounceCount[ind][1].cur = keyState_notPressed;
    20b6:	89 81       	ldd	r24, Y+1	; 0x01
    20b8:	28 2f       	mov	r18, r24
    20ba:	30 e0       	ldi	r19, 0x00	; 0
    20bc:	c9 01       	movw	r24, r18
    20be:	88 0f       	add	r24, r24
    20c0:	99 1f       	adc	r25, r25
    20c2:	82 0f       	add	r24, r18
    20c4:	93 1f       	adc	r25, r19
    20c6:	88 0f       	add	r24, r24
    20c8:	99 1f       	adc	r25, r25
    20ca:	88 0f       	add	r24, r24
    20cc:	99 1f       	adc	r25, r25
    20ce:	fc 01       	movw	r30, r24
    20d0:	e1 56       	subi	r30, 0x61	; 97
    20d2:	fc 4f       	sbci	r31, 0xFC	; 252
    20d4:	81 e0       	ldi	r24, 0x01	; 1
    20d6:	80 83       	st	Z, r24
					keysDebounceCount[ind][2].cur = keyState_notPressed;
    20d8:	89 81       	ldd	r24, Y+1	; 0x01
    20da:	28 2f       	mov	r18, r24
    20dc:	30 e0       	ldi	r19, 0x00	; 0
    20de:	c9 01       	movw	r24, r18
    20e0:	88 0f       	add	r24, r24
    20e2:	99 1f       	adc	r25, r25
    20e4:	82 0f       	add	r24, r18
    20e6:	93 1f       	adc	r25, r19
    20e8:	88 0f       	add	r24, r24
    20ea:	99 1f       	adc	r25, r25
    20ec:	88 0f       	add	r24, r24
    20ee:	99 1f       	adc	r25, r25
    20f0:	fc 01       	movw	r30, r24
    20f2:	ee 55       	subi	r30, 0x5E	; 94
    20f4:	fc 4f       	sbci	r31, 0xFC	; 252
    20f6:	81 e0       	ldi	r24, 0x01	; 1
    20f8:	80 83       	st	Z, r24
					keysDebounceCount[ind][3].cur = keyState_notPressed;
    20fa:	89 81       	ldd	r24, Y+1	; 0x01
    20fc:	28 2f       	mov	r18, r24
    20fe:	30 e0       	ldi	r19, 0x00	; 0
    2100:	c9 01       	movw	r24, r18
    2102:	88 0f       	add	r24, r24
    2104:	99 1f       	adc	r25, r25
    2106:	82 0f       	add	r24, r18
    2108:	93 1f       	adc	r25, r19
    210a:	88 0f       	add	r24, r24
    210c:	99 1f       	adc	r25, r25
    210e:	88 0f       	add	r24, r24
    2110:	99 1f       	adc	r25, r25
    2112:	fc 01       	movw	r30, r24
    2114:	eb 55       	subi	r30, 0x5B	; 91
    2116:	fc 4f       	sbci	r31, 0xFC	; 252
    2118:	81 e0       	ldi	r24, 0x01	; 1
    211a:	80 83       	st	Z, r24
    211c:	bc c2       	rjmp	.+1400   	; 0x2696 <keypad_handler+0x8be>
					break;
				case 0x0D:
					keysDebounceCount[ind][1].cur = keyState_pressed;
    211e:	89 81       	ldd	r24, Y+1	; 0x01
    2120:	28 2f       	mov	r18, r24
    2122:	30 e0       	ldi	r19, 0x00	; 0
    2124:	c9 01       	movw	r24, r18
    2126:	88 0f       	add	r24, r24
    2128:	99 1f       	adc	r25, r25
    212a:	82 0f       	add	r24, r18
    212c:	93 1f       	adc	r25, r19
    212e:	88 0f       	add	r24, r24
    2130:	99 1f       	adc	r25, r25
    2132:	88 0f       	add	r24, r24
    2134:	99 1f       	adc	r25, r25
    2136:	fc 01       	movw	r30, r24
    2138:	e1 56       	subi	r30, 0x61	; 97
    213a:	fc 4f       	sbci	r31, 0xFC	; 252
    213c:	10 82       	st	Z, r1
					if(keysDebounceCount[ind][1].cur == keysDebounceCount[ind][1].prev)
    213e:	89 81       	ldd	r24, Y+1	; 0x01
    2140:	28 2f       	mov	r18, r24
    2142:	30 e0       	ldi	r19, 0x00	; 0
    2144:	c9 01       	movw	r24, r18
    2146:	88 0f       	add	r24, r24
    2148:	99 1f       	adc	r25, r25
    214a:	82 0f       	add	r24, r18
    214c:	93 1f       	adc	r25, r19
    214e:	88 0f       	add	r24, r24
    2150:	99 1f       	adc	r25, r25
    2152:	88 0f       	add	r24, r24
    2154:	99 1f       	adc	r25, r25
    2156:	fc 01       	movw	r30, r24
    2158:	e1 56       	subi	r30, 0x61	; 97
    215a:	fc 4f       	sbci	r31, 0xFC	; 252
    215c:	40 81       	ld	r20, Z
    215e:	89 81       	ldd	r24, Y+1	; 0x01
    2160:	28 2f       	mov	r18, r24
    2162:	30 e0       	ldi	r19, 0x00	; 0
    2164:	c9 01       	movw	r24, r18
    2166:	88 0f       	add	r24, r24
    2168:	99 1f       	adc	r25, r25
    216a:	82 0f       	add	r24, r18
    216c:	93 1f       	adc	r25, r19
    216e:	01 96       	adiw	r24, 0x01	; 1
    2170:	88 0f       	add	r24, r24
    2172:	99 1f       	adc	r25, r25
    2174:	88 0f       	add	r24, r24
    2176:	99 1f       	adc	r25, r25
    2178:	fc 01       	movw	r30, r24
    217a:	e4 56       	subi	r30, 0x64	; 100
    217c:	fc 4f       	sbci	r31, 0xFC	; 252
    217e:	80 81       	ld	r24, Z
    2180:	48 17       	cp	r20, r24
    2182:	09 f0       	breq	.+2      	; 0x2186 <keypad_handler+0x3ae>
    2184:	4f c0       	rjmp	.+158    	; 0x2224 <keypad_handler+0x44c>
					{
						keysDebounceCount[ind][1].count++;
    2186:	89 81       	ldd	r24, Y+1	; 0x01
    2188:	28 2f       	mov	r18, r24
    218a:	30 e0       	ldi	r19, 0x00	; 0
    218c:	c9 01       	movw	r24, r18
    218e:	88 0f       	add	r24, r24
    2190:	99 1f       	adc	r25, r25
    2192:	82 0f       	add	r24, r18
    2194:	93 1f       	adc	r25, r19
    2196:	88 0f       	add	r24, r24
    2198:	99 1f       	adc	r25, r25
    219a:	88 0f       	add	r24, r24
    219c:	99 1f       	adc	r25, r25
    219e:	fc 01       	movw	r30, r24
    21a0:	ef 55       	subi	r30, 0x5F	; 95
    21a2:	fc 4f       	sbci	r31, 0xFC	; 252
    21a4:	80 81       	ld	r24, Z
    21a6:	48 2f       	mov	r20, r24
    21a8:	4f 5f       	subi	r20, 0xFF	; 255
    21aa:	c9 01       	movw	r24, r18
    21ac:	88 0f       	add	r24, r24
    21ae:	99 1f       	adc	r25, r25
    21b0:	82 0f       	add	r24, r18
    21b2:	93 1f       	adc	r25, r19
    21b4:	88 0f       	add	r24, r24
    21b6:	99 1f       	adc	r25, r25
    21b8:	88 0f       	add	r24, r24
    21ba:	99 1f       	adc	r25, r25
    21bc:	fc 01       	movw	r30, r24
    21be:	ef 55       	subi	r30, 0x5F	; 95
    21c0:	fc 4f       	sbci	r31, 0xFC	; 252
    21c2:	40 83       	st	Z, r20
						if(keysDebounceCount[ind][1].count == 5)
    21c4:	89 81       	ldd	r24, Y+1	; 0x01
    21c6:	28 2f       	mov	r18, r24
    21c8:	30 e0       	ldi	r19, 0x00	; 0
    21ca:	c9 01       	movw	r24, r18
    21cc:	88 0f       	add	r24, r24
    21ce:	99 1f       	adc	r25, r25
    21d0:	82 0f       	add	r24, r18
    21d2:	93 1f       	adc	r25, r19
    21d4:	88 0f       	add	r24, r24
    21d6:	99 1f       	adc	r25, r25
    21d8:	88 0f       	add	r24, r24
    21da:	99 1f       	adc	r25, r25
    21dc:	fc 01       	movw	r30, r24
    21de:	ef 55       	subi	r30, 0x5F	; 95
    21e0:	fc 4f       	sbci	r31, 0xFC	; 252
    21e2:	80 81       	ld	r24, Z
    21e4:	85 30       	cpi	r24, 0x05	; 5
    21e6:	71 f5       	brne	.+92     	; 0x2244 <keypad_handler+0x46c>
						{
							pressedKey = keypadkeysCfg[ind][1];
    21e8:	89 81       	ldd	r24, Y+1	; 0x01
    21ea:	88 2f       	mov	r24, r24
    21ec:	90 e0       	ldi	r25, 0x00	; 0
    21ee:	88 0f       	add	r24, r24
    21f0:	99 1f       	adc	r25, r25
    21f2:	88 0f       	add	r24, r24
    21f4:	99 1f       	adc	r25, r25
    21f6:	fc 01       	movw	r30, r24
    21f8:	e8 56       	subi	r30, 0x68	; 104
    21fa:	ff 4f       	sbci	r31, 0xFF	; 255
    21fc:	80 81       	ld	r24, Z
    21fe:	80 93 8b 00 	sts	0x008B, r24
							keysDebounceCount[ind][1].count = 0;
    2202:	89 81       	ldd	r24, Y+1	; 0x01
    2204:	28 2f       	mov	r18, r24
    2206:	30 e0       	ldi	r19, 0x00	; 0
    2208:	c9 01       	movw	r24, r18
    220a:	88 0f       	add	r24, r24
    220c:	99 1f       	adc	r25, r25
    220e:	82 0f       	add	r24, r18
    2210:	93 1f       	adc	r25, r19
    2212:	88 0f       	add	r24, r24
    2214:	99 1f       	adc	r25, r25
    2216:	88 0f       	add	r24, r24
    2218:	99 1f       	adc	r25, r25
    221a:	fc 01       	movw	r30, r24
    221c:	ef 55       	subi	r30, 0x5F	; 95
    221e:	fc 4f       	sbci	r31, 0xFC	; 252
    2220:	10 82       	st	Z, r1
    2222:	10 c0       	rjmp	.+32     	; 0x2244 <keypad_handler+0x46c>
						}
					}
					else
					{
						keysDebounceCount[ind][1].count = 0;
    2224:	89 81       	ldd	r24, Y+1	; 0x01
    2226:	28 2f       	mov	r18, r24
    2228:	30 e0       	ldi	r19, 0x00	; 0
    222a:	c9 01       	movw	r24, r18
    222c:	88 0f       	add	r24, r24
    222e:	99 1f       	adc	r25, r25
    2230:	82 0f       	add	r24, r18
    2232:	93 1f       	adc	r25, r19
    2234:	88 0f       	add	r24, r24
    2236:	99 1f       	adc	r25, r25
    2238:	88 0f       	add	r24, r24
    223a:	99 1f       	adc	r25, r25
    223c:	fc 01       	movw	r30, r24
    223e:	ef 55       	subi	r30, 0x5F	; 95
    2240:	fc 4f       	sbci	r31, 0xFC	; 252
    2242:	10 82       	st	Z, r1
					}
					keysDebounceCount[ind][1].prev = keysDebounceCount[ind][1].cur;
    2244:	89 81       	ldd	r24, Y+1	; 0x01
    2246:	48 2f       	mov	r20, r24
    2248:	50 e0       	ldi	r21, 0x00	; 0
    224a:	89 81       	ldd	r24, Y+1	; 0x01
    224c:	28 2f       	mov	r18, r24
    224e:	30 e0       	ldi	r19, 0x00	; 0
    2250:	c9 01       	movw	r24, r18
    2252:	88 0f       	add	r24, r24
    2254:	99 1f       	adc	r25, r25
    2256:	82 0f       	add	r24, r18
    2258:	93 1f       	adc	r25, r19
    225a:	88 0f       	add	r24, r24
    225c:	99 1f       	adc	r25, r25
    225e:	88 0f       	add	r24, r24
    2260:	99 1f       	adc	r25, r25
    2262:	fc 01       	movw	r30, r24
    2264:	e1 56       	subi	r30, 0x61	; 97
    2266:	fc 4f       	sbci	r31, 0xFC	; 252
    2268:	20 81       	ld	r18, Z
    226a:	ca 01       	movw	r24, r20
    226c:	88 0f       	add	r24, r24
    226e:	99 1f       	adc	r25, r25
    2270:	84 0f       	add	r24, r20
    2272:	95 1f       	adc	r25, r21
    2274:	01 96       	adiw	r24, 0x01	; 1
    2276:	88 0f       	add	r24, r24
    2278:	99 1f       	adc	r25, r25
    227a:	88 0f       	add	r24, r24
    227c:	99 1f       	adc	r25, r25
    227e:	fc 01       	movw	r30, r24
    2280:	e4 56       	subi	r30, 0x64	; 100
    2282:	fc 4f       	sbci	r31, 0xFC	; 252
    2284:	20 83       	st	Z, r18
					keysDebounceCount[ind][0].cur = keyState_notPressed;
    2286:	89 81       	ldd	r24, Y+1	; 0x01
    2288:	28 2f       	mov	r18, r24
    228a:	30 e0       	ldi	r19, 0x00	; 0
    228c:	c9 01       	movw	r24, r18
    228e:	88 0f       	add	r24, r24
    2290:	99 1f       	adc	r25, r25
    2292:	82 0f       	add	r24, r18
    2294:	93 1f       	adc	r25, r19
    2296:	88 0f       	add	r24, r24
    2298:	99 1f       	adc	r25, r25
    229a:	88 0f       	add	r24, r24
    229c:	99 1f       	adc	r25, r25
    229e:	fc 01       	movw	r30, r24
    22a0:	e4 56       	subi	r30, 0x64	; 100
    22a2:	fc 4f       	sbci	r31, 0xFC	; 252
    22a4:	81 e0       	ldi	r24, 0x01	; 1
    22a6:	80 83       	st	Z, r24
					keysDebounceCount[ind][2].cur = keyState_notPressed;
    22a8:	89 81       	ldd	r24, Y+1	; 0x01
    22aa:	28 2f       	mov	r18, r24
    22ac:	30 e0       	ldi	r19, 0x00	; 0
    22ae:	c9 01       	movw	r24, r18
    22b0:	88 0f       	add	r24, r24
    22b2:	99 1f       	adc	r25, r25
    22b4:	82 0f       	add	r24, r18
    22b6:	93 1f       	adc	r25, r19
    22b8:	88 0f       	add	r24, r24
    22ba:	99 1f       	adc	r25, r25
    22bc:	88 0f       	add	r24, r24
    22be:	99 1f       	adc	r25, r25
    22c0:	fc 01       	movw	r30, r24
    22c2:	ee 55       	subi	r30, 0x5E	; 94
    22c4:	fc 4f       	sbci	r31, 0xFC	; 252
    22c6:	81 e0       	ldi	r24, 0x01	; 1
    22c8:	80 83       	st	Z, r24
					keysDebounceCount[ind][3].cur = keyState_notPressed;
    22ca:	89 81       	ldd	r24, Y+1	; 0x01
    22cc:	28 2f       	mov	r18, r24
    22ce:	30 e0       	ldi	r19, 0x00	; 0
    22d0:	c9 01       	movw	r24, r18
    22d2:	88 0f       	add	r24, r24
    22d4:	99 1f       	adc	r25, r25
    22d6:	82 0f       	add	r24, r18
    22d8:	93 1f       	adc	r25, r19
    22da:	88 0f       	add	r24, r24
    22dc:	99 1f       	adc	r25, r25
    22de:	88 0f       	add	r24, r24
    22e0:	99 1f       	adc	r25, r25
    22e2:	fc 01       	movw	r30, r24
    22e4:	eb 55       	subi	r30, 0x5B	; 91
    22e6:	fc 4f       	sbci	r31, 0xFC	; 252
    22e8:	81 e0       	ldi	r24, 0x01	; 1
    22ea:	80 83       	st	Z, r24
    22ec:	d4 c1       	rjmp	.+936    	; 0x2696 <keypad_handler+0x8be>
					break;
				case 0x0B:
					keysDebounceCount[ind][2].cur = keyState_pressed;
    22ee:	89 81       	ldd	r24, Y+1	; 0x01
    22f0:	28 2f       	mov	r18, r24
    22f2:	30 e0       	ldi	r19, 0x00	; 0
    22f4:	c9 01       	movw	r24, r18
    22f6:	88 0f       	add	r24, r24
    22f8:	99 1f       	adc	r25, r25
    22fa:	82 0f       	add	r24, r18
    22fc:	93 1f       	adc	r25, r19
    22fe:	88 0f       	add	r24, r24
    2300:	99 1f       	adc	r25, r25
    2302:	88 0f       	add	r24, r24
    2304:	99 1f       	adc	r25, r25
    2306:	fc 01       	movw	r30, r24
    2308:	ee 55       	subi	r30, 0x5E	; 94
    230a:	fc 4f       	sbci	r31, 0xFC	; 252
    230c:	10 82       	st	Z, r1
					if(keysDebounceCount[ind][2].cur == keysDebounceCount[ind][2].prev)
    230e:	89 81       	ldd	r24, Y+1	; 0x01
    2310:	28 2f       	mov	r18, r24
    2312:	30 e0       	ldi	r19, 0x00	; 0
    2314:	c9 01       	movw	r24, r18
    2316:	88 0f       	add	r24, r24
    2318:	99 1f       	adc	r25, r25
    231a:	82 0f       	add	r24, r18
    231c:	93 1f       	adc	r25, r19
    231e:	88 0f       	add	r24, r24
    2320:	99 1f       	adc	r25, r25
    2322:	88 0f       	add	r24, r24
    2324:	99 1f       	adc	r25, r25
    2326:	fc 01       	movw	r30, r24
    2328:	ee 55       	subi	r30, 0x5E	; 94
    232a:	fc 4f       	sbci	r31, 0xFC	; 252
    232c:	40 81       	ld	r20, Z
    232e:	89 81       	ldd	r24, Y+1	; 0x01
    2330:	28 2f       	mov	r18, r24
    2332:	30 e0       	ldi	r19, 0x00	; 0
    2334:	c9 01       	movw	r24, r18
    2336:	88 0f       	add	r24, r24
    2338:	99 1f       	adc	r25, r25
    233a:	82 0f       	add	r24, r18
    233c:	93 1f       	adc	r25, r19
    233e:	88 0f       	add	r24, r24
    2340:	99 1f       	adc	r25, r25
    2342:	88 0f       	add	r24, r24
    2344:	99 1f       	adc	r25, r25
    2346:	fc 01       	movw	r30, r24
    2348:	ed 55       	subi	r30, 0x5D	; 93
    234a:	fc 4f       	sbci	r31, 0xFC	; 252
    234c:	80 81       	ld	r24, Z
    234e:	48 17       	cp	r20, r24
    2350:	09 f0       	breq	.+2      	; 0x2354 <keypad_handler+0x57c>
    2352:	50 c0       	rjmp	.+160    	; 0x23f4 <keypad_handler+0x61c>
					{
						keysDebounceCount[ind][2].count++;
    2354:	89 81       	ldd	r24, Y+1	; 0x01
    2356:	28 2f       	mov	r18, r24
    2358:	30 e0       	ldi	r19, 0x00	; 0
    235a:	c9 01       	movw	r24, r18
    235c:	88 0f       	add	r24, r24
    235e:	99 1f       	adc	r25, r25
    2360:	82 0f       	add	r24, r18
    2362:	93 1f       	adc	r25, r19
    2364:	88 0f       	add	r24, r24
    2366:	99 1f       	adc	r25, r25
    2368:	88 0f       	add	r24, r24
    236a:	99 1f       	adc	r25, r25
    236c:	fc 01       	movw	r30, r24
    236e:	ec 55       	subi	r30, 0x5C	; 92
    2370:	fc 4f       	sbci	r31, 0xFC	; 252
    2372:	80 81       	ld	r24, Z
    2374:	48 2f       	mov	r20, r24
    2376:	4f 5f       	subi	r20, 0xFF	; 255
    2378:	c9 01       	movw	r24, r18
    237a:	88 0f       	add	r24, r24
    237c:	99 1f       	adc	r25, r25
    237e:	82 0f       	add	r24, r18
    2380:	93 1f       	adc	r25, r19
    2382:	88 0f       	add	r24, r24
    2384:	99 1f       	adc	r25, r25
    2386:	88 0f       	add	r24, r24
    2388:	99 1f       	adc	r25, r25
    238a:	fc 01       	movw	r30, r24
    238c:	ec 55       	subi	r30, 0x5C	; 92
    238e:	fc 4f       	sbci	r31, 0xFC	; 252
    2390:	40 83       	st	Z, r20
						if(keysDebounceCount[ind][2].count == 5)
    2392:	89 81       	ldd	r24, Y+1	; 0x01
    2394:	28 2f       	mov	r18, r24
    2396:	30 e0       	ldi	r19, 0x00	; 0
    2398:	c9 01       	movw	r24, r18
    239a:	88 0f       	add	r24, r24
    239c:	99 1f       	adc	r25, r25
    239e:	82 0f       	add	r24, r18
    23a0:	93 1f       	adc	r25, r19
    23a2:	88 0f       	add	r24, r24
    23a4:	99 1f       	adc	r25, r25
    23a6:	88 0f       	add	r24, r24
    23a8:	99 1f       	adc	r25, r25
    23aa:	fc 01       	movw	r30, r24
    23ac:	ec 55       	subi	r30, 0x5C	; 92
    23ae:	fc 4f       	sbci	r31, 0xFC	; 252
    23b0:	80 81       	ld	r24, Z
    23b2:	85 30       	cpi	r24, 0x05	; 5
    23b4:	79 f5       	brne	.+94     	; 0x2414 <keypad_handler+0x63c>
						{
							pressedKey = keypadkeysCfg[ind][2];
    23b6:	89 81       	ldd	r24, Y+1	; 0x01
    23b8:	88 2f       	mov	r24, r24
    23ba:	90 e0       	ldi	r25, 0x00	; 0
    23bc:	88 0f       	add	r24, r24
    23be:	99 1f       	adc	r25, r25
    23c0:	01 96       	adiw	r24, 0x01	; 1
    23c2:	88 0f       	add	r24, r24
    23c4:	99 1f       	adc	r25, r25
    23c6:	fc 01       	movw	r30, r24
    23c8:	e9 56       	subi	r30, 0x69	; 105
    23ca:	ff 4f       	sbci	r31, 0xFF	; 255
    23cc:	80 81       	ld	r24, Z
    23ce:	80 93 8b 00 	sts	0x008B, r24
							keysDebounceCount[ind][2].count = 0;
    23d2:	89 81       	ldd	r24, Y+1	; 0x01
    23d4:	28 2f       	mov	r18, r24
    23d6:	30 e0       	ldi	r19, 0x00	; 0
    23d8:	c9 01       	movw	r24, r18
    23da:	88 0f       	add	r24, r24
    23dc:	99 1f       	adc	r25, r25
    23de:	82 0f       	add	r24, r18
    23e0:	93 1f       	adc	r25, r19
    23e2:	88 0f       	add	r24, r24
    23e4:	99 1f       	adc	r25, r25
    23e6:	88 0f       	add	r24, r24
    23e8:	99 1f       	adc	r25, r25
    23ea:	fc 01       	movw	r30, r24
    23ec:	ec 55       	subi	r30, 0x5C	; 92
    23ee:	fc 4f       	sbci	r31, 0xFC	; 252
    23f0:	10 82       	st	Z, r1
    23f2:	10 c0       	rjmp	.+32     	; 0x2414 <keypad_handler+0x63c>
						}
					}
					else
					{
						keysDebounceCount[ind][2].count = 0;
    23f4:	89 81       	ldd	r24, Y+1	; 0x01
    23f6:	28 2f       	mov	r18, r24
    23f8:	30 e0       	ldi	r19, 0x00	; 0
    23fa:	c9 01       	movw	r24, r18
    23fc:	88 0f       	add	r24, r24
    23fe:	99 1f       	adc	r25, r25
    2400:	82 0f       	add	r24, r18
    2402:	93 1f       	adc	r25, r19
    2404:	88 0f       	add	r24, r24
    2406:	99 1f       	adc	r25, r25
    2408:	88 0f       	add	r24, r24
    240a:	99 1f       	adc	r25, r25
    240c:	fc 01       	movw	r30, r24
    240e:	ec 55       	subi	r30, 0x5C	; 92
    2410:	fc 4f       	sbci	r31, 0xFC	; 252
    2412:	10 82       	st	Z, r1
					}
					keysDebounceCount[ind][2].prev = keysDebounceCount[ind][2].cur;
    2414:	89 81       	ldd	r24, Y+1	; 0x01
    2416:	48 2f       	mov	r20, r24
    2418:	50 e0       	ldi	r21, 0x00	; 0
    241a:	89 81       	ldd	r24, Y+1	; 0x01
    241c:	28 2f       	mov	r18, r24
    241e:	30 e0       	ldi	r19, 0x00	; 0
    2420:	c9 01       	movw	r24, r18
    2422:	88 0f       	add	r24, r24
    2424:	99 1f       	adc	r25, r25
    2426:	82 0f       	add	r24, r18
    2428:	93 1f       	adc	r25, r19
    242a:	88 0f       	add	r24, r24
    242c:	99 1f       	adc	r25, r25
    242e:	88 0f       	add	r24, r24
    2430:	99 1f       	adc	r25, r25
    2432:	fc 01       	movw	r30, r24
    2434:	ee 55       	subi	r30, 0x5E	; 94
    2436:	fc 4f       	sbci	r31, 0xFC	; 252
    2438:	20 81       	ld	r18, Z
    243a:	ca 01       	movw	r24, r20
    243c:	88 0f       	add	r24, r24
    243e:	99 1f       	adc	r25, r25
    2440:	84 0f       	add	r24, r20
    2442:	95 1f       	adc	r25, r21
    2444:	88 0f       	add	r24, r24
    2446:	99 1f       	adc	r25, r25
    2448:	88 0f       	add	r24, r24
    244a:	99 1f       	adc	r25, r25
    244c:	fc 01       	movw	r30, r24
    244e:	ed 55       	subi	r30, 0x5D	; 93
    2450:	fc 4f       	sbci	r31, 0xFC	; 252
    2452:	20 83       	st	Z, r18
					keysDebounceCount[ind][1].cur = keyState_notPressed;
    2454:	89 81       	ldd	r24, Y+1	; 0x01
    2456:	28 2f       	mov	r18, r24
    2458:	30 e0       	ldi	r19, 0x00	; 0
    245a:	c9 01       	movw	r24, r18
    245c:	88 0f       	add	r24, r24
    245e:	99 1f       	adc	r25, r25
    2460:	82 0f       	add	r24, r18
    2462:	93 1f       	adc	r25, r19
    2464:	88 0f       	add	r24, r24
    2466:	99 1f       	adc	r25, r25
    2468:	88 0f       	add	r24, r24
    246a:	99 1f       	adc	r25, r25
    246c:	fc 01       	movw	r30, r24
    246e:	e1 56       	subi	r30, 0x61	; 97
    2470:	fc 4f       	sbci	r31, 0xFC	; 252
    2472:	81 e0       	ldi	r24, 0x01	; 1
    2474:	80 83       	st	Z, r24
					keysDebounceCount[ind][0].cur = keyState_notPressed;
    2476:	89 81       	ldd	r24, Y+1	; 0x01
    2478:	28 2f       	mov	r18, r24
    247a:	30 e0       	ldi	r19, 0x00	; 0
    247c:	c9 01       	movw	r24, r18
    247e:	88 0f       	add	r24, r24
    2480:	99 1f       	adc	r25, r25
    2482:	82 0f       	add	r24, r18
    2484:	93 1f       	adc	r25, r19
    2486:	88 0f       	add	r24, r24
    2488:	99 1f       	adc	r25, r25
    248a:	88 0f       	add	r24, r24
    248c:	99 1f       	adc	r25, r25
    248e:	fc 01       	movw	r30, r24
    2490:	e4 56       	subi	r30, 0x64	; 100
    2492:	fc 4f       	sbci	r31, 0xFC	; 252
    2494:	81 e0       	ldi	r24, 0x01	; 1
    2496:	80 83       	st	Z, r24
					keysDebounceCount[ind][3].cur = keyState_notPressed;
    2498:	89 81       	ldd	r24, Y+1	; 0x01
    249a:	28 2f       	mov	r18, r24
    249c:	30 e0       	ldi	r19, 0x00	; 0
    249e:	c9 01       	movw	r24, r18
    24a0:	88 0f       	add	r24, r24
    24a2:	99 1f       	adc	r25, r25
    24a4:	82 0f       	add	r24, r18
    24a6:	93 1f       	adc	r25, r19
    24a8:	88 0f       	add	r24, r24
    24aa:	99 1f       	adc	r25, r25
    24ac:	88 0f       	add	r24, r24
    24ae:	99 1f       	adc	r25, r25
    24b0:	fc 01       	movw	r30, r24
    24b2:	eb 55       	subi	r30, 0x5B	; 91
    24b4:	fc 4f       	sbci	r31, 0xFC	; 252
    24b6:	81 e0       	ldi	r24, 0x01	; 1
    24b8:	80 83       	st	Z, r24
    24ba:	ed c0       	rjmp	.+474    	; 0x2696 <keypad_handler+0x8be>
					break;
				case 0x07:
					keysDebounceCount[ind][3].cur = keyState_pressed;
    24bc:	89 81       	ldd	r24, Y+1	; 0x01
    24be:	28 2f       	mov	r18, r24
    24c0:	30 e0       	ldi	r19, 0x00	; 0
    24c2:	c9 01       	movw	r24, r18
    24c4:	88 0f       	add	r24, r24
    24c6:	99 1f       	adc	r25, r25
    24c8:	82 0f       	add	r24, r18
    24ca:	93 1f       	adc	r25, r19
    24cc:	88 0f       	add	r24, r24
    24ce:	99 1f       	adc	r25, r25
    24d0:	88 0f       	add	r24, r24
    24d2:	99 1f       	adc	r25, r25
    24d4:	fc 01       	movw	r30, r24
    24d6:	eb 55       	subi	r30, 0x5B	; 91
    24d8:	fc 4f       	sbci	r31, 0xFC	; 252
    24da:	10 82       	st	Z, r1
					if(keysDebounceCount[ind][3].cur == keysDebounceCount[ind][3].prev)
    24dc:	89 81       	ldd	r24, Y+1	; 0x01
    24de:	28 2f       	mov	r18, r24
    24e0:	30 e0       	ldi	r19, 0x00	; 0
    24e2:	c9 01       	movw	r24, r18
    24e4:	88 0f       	add	r24, r24
    24e6:	99 1f       	adc	r25, r25
    24e8:	82 0f       	add	r24, r18
    24ea:	93 1f       	adc	r25, r19
    24ec:	88 0f       	add	r24, r24
    24ee:	99 1f       	adc	r25, r25
    24f0:	88 0f       	add	r24, r24
    24f2:	99 1f       	adc	r25, r25
    24f4:	fc 01       	movw	r30, r24
    24f6:	eb 55       	subi	r30, 0x5B	; 91
    24f8:	fc 4f       	sbci	r31, 0xFC	; 252
    24fa:	40 81       	ld	r20, Z
    24fc:	89 81       	ldd	r24, Y+1	; 0x01
    24fe:	28 2f       	mov	r18, r24
    2500:	30 e0       	ldi	r19, 0x00	; 0
    2502:	c9 01       	movw	r24, r18
    2504:	88 0f       	add	r24, r24
    2506:	99 1f       	adc	r25, r25
    2508:	82 0f       	add	r24, r18
    250a:	93 1f       	adc	r25, r19
    250c:	88 0f       	add	r24, r24
    250e:	99 1f       	adc	r25, r25
    2510:	88 0f       	add	r24, r24
    2512:	99 1f       	adc	r25, r25
    2514:	fc 01       	movw	r30, r24
    2516:	ea 55       	subi	r30, 0x5A	; 90
    2518:	fc 4f       	sbci	r31, 0xFC	; 252
    251a:	80 81       	ld	r24, Z
    251c:	48 17       	cp	r20, r24
    251e:	09 f0       	breq	.+2      	; 0x2522 <keypad_handler+0x74a>
    2520:	4f c0       	rjmp	.+158    	; 0x25c0 <keypad_handler+0x7e8>
					{
						keysDebounceCount[ind][3].count++;
    2522:	89 81       	ldd	r24, Y+1	; 0x01
    2524:	28 2f       	mov	r18, r24
    2526:	30 e0       	ldi	r19, 0x00	; 0
    2528:	c9 01       	movw	r24, r18
    252a:	88 0f       	add	r24, r24
    252c:	99 1f       	adc	r25, r25
    252e:	82 0f       	add	r24, r18
    2530:	93 1f       	adc	r25, r19
    2532:	88 0f       	add	r24, r24
    2534:	99 1f       	adc	r25, r25
    2536:	88 0f       	add	r24, r24
    2538:	99 1f       	adc	r25, r25
    253a:	fc 01       	movw	r30, r24
    253c:	e9 55       	subi	r30, 0x59	; 89
    253e:	fc 4f       	sbci	r31, 0xFC	; 252
    2540:	80 81       	ld	r24, Z
    2542:	48 2f       	mov	r20, r24
    2544:	4f 5f       	subi	r20, 0xFF	; 255
    2546:	c9 01       	movw	r24, r18
    2548:	88 0f       	add	r24, r24
    254a:	99 1f       	adc	r25, r25
    254c:	82 0f       	add	r24, r18
    254e:	93 1f       	adc	r25, r19
    2550:	88 0f       	add	r24, r24
    2552:	99 1f       	adc	r25, r25
    2554:	88 0f       	add	r24, r24
    2556:	99 1f       	adc	r25, r25
    2558:	fc 01       	movw	r30, r24
    255a:	e9 55       	subi	r30, 0x59	; 89
    255c:	fc 4f       	sbci	r31, 0xFC	; 252
    255e:	40 83       	st	Z, r20
						if(keysDebounceCount[ind][3].count == 5)
    2560:	89 81       	ldd	r24, Y+1	; 0x01
    2562:	28 2f       	mov	r18, r24
    2564:	30 e0       	ldi	r19, 0x00	; 0
    2566:	c9 01       	movw	r24, r18
    2568:	88 0f       	add	r24, r24
    256a:	99 1f       	adc	r25, r25
    256c:	82 0f       	add	r24, r18
    256e:	93 1f       	adc	r25, r19
    2570:	88 0f       	add	r24, r24
    2572:	99 1f       	adc	r25, r25
    2574:	88 0f       	add	r24, r24
    2576:	99 1f       	adc	r25, r25
    2578:	fc 01       	movw	r30, r24
    257a:	e9 55       	subi	r30, 0x59	; 89
    257c:	fc 4f       	sbci	r31, 0xFC	; 252
    257e:	80 81       	ld	r24, Z
    2580:	85 30       	cpi	r24, 0x05	; 5
    2582:	71 f5       	brne	.+92     	; 0x25e0 <keypad_handler+0x808>
						{
							pressedKey = keypadkeysCfg[ind][3];
    2584:	89 81       	ldd	r24, Y+1	; 0x01
    2586:	88 2f       	mov	r24, r24
    2588:	90 e0       	ldi	r25, 0x00	; 0
    258a:	88 0f       	add	r24, r24
    258c:	99 1f       	adc	r25, r25
    258e:	88 0f       	add	r24, r24
    2590:	99 1f       	adc	r25, r25
    2592:	fc 01       	movw	r30, r24
    2594:	e6 56       	subi	r30, 0x66	; 102
    2596:	ff 4f       	sbci	r31, 0xFF	; 255
    2598:	80 81       	ld	r24, Z
    259a:	80 93 8b 00 	sts	0x008B, r24
							keysDebounceCount[ind][3].count = 0;
    259e:	89 81       	ldd	r24, Y+1	; 0x01
    25a0:	28 2f       	mov	r18, r24
    25a2:	30 e0       	ldi	r19, 0x00	; 0
    25a4:	c9 01       	movw	r24, r18
    25a6:	88 0f       	add	r24, r24
    25a8:	99 1f       	adc	r25, r25
    25aa:	82 0f       	add	r24, r18
    25ac:	93 1f       	adc	r25, r19
    25ae:	88 0f       	add	r24, r24
    25b0:	99 1f       	adc	r25, r25
    25b2:	88 0f       	add	r24, r24
    25b4:	99 1f       	adc	r25, r25
    25b6:	fc 01       	movw	r30, r24
    25b8:	e9 55       	subi	r30, 0x59	; 89
    25ba:	fc 4f       	sbci	r31, 0xFC	; 252
    25bc:	10 82       	st	Z, r1
    25be:	10 c0       	rjmp	.+32     	; 0x25e0 <keypad_handler+0x808>
						}
					}
					else
					{
						keysDebounceCount[ind][3].count = 0;
    25c0:	89 81       	ldd	r24, Y+1	; 0x01
    25c2:	28 2f       	mov	r18, r24
    25c4:	30 e0       	ldi	r19, 0x00	; 0
    25c6:	c9 01       	movw	r24, r18
    25c8:	88 0f       	add	r24, r24
    25ca:	99 1f       	adc	r25, r25
    25cc:	82 0f       	add	r24, r18
    25ce:	93 1f       	adc	r25, r19
    25d0:	88 0f       	add	r24, r24
    25d2:	99 1f       	adc	r25, r25
    25d4:	88 0f       	add	r24, r24
    25d6:	99 1f       	adc	r25, r25
    25d8:	fc 01       	movw	r30, r24
    25da:	e9 55       	subi	r30, 0x59	; 89
    25dc:	fc 4f       	sbci	r31, 0xFC	; 252
    25de:	10 82       	st	Z, r1
					}
					keysDebounceCount[ind][3].prev = keysDebounceCount[ind][3].cur;
    25e0:	89 81       	ldd	r24, Y+1	; 0x01
    25e2:	48 2f       	mov	r20, r24
    25e4:	50 e0       	ldi	r21, 0x00	; 0
    25e6:	89 81       	ldd	r24, Y+1	; 0x01
    25e8:	28 2f       	mov	r18, r24
    25ea:	30 e0       	ldi	r19, 0x00	; 0
    25ec:	c9 01       	movw	r24, r18
    25ee:	88 0f       	add	r24, r24
    25f0:	99 1f       	adc	r25, r25
    25f2:	82 0f       	add	r24, r18
    25f4:	93 1f       	adc	r25, r19
    25f6:	88 0f       	add	r24, r24
    25f8:	99 1f       	adc	r25, r25
    25fa:	88 0f       	add	r24, r24
    25fc:	99 1f       	adc	r25, r25
    25fe:	fc 01       	movw	r30, r24
    2600:	eb 55       	subi	r30, 0x5B	; 91
    2602:	fc 4f       	sbci	r31, 0xFC	; 252
    2604:	20 81       	ld	r18, Z
    2606:	ca 01       	movw	r24, r20
    2608:	88 0f       	add	r24, r24
    260a:	99 1f       	adc	r25, r25
    260c:	84 0f       	add	r24, r20
    260e:	95 1f       	adc	r25, r21
    2610:	88 0f       	add	r24, r24
    2612:	99 1f       	adc	r25, r25
    2614:	88 0f       	add	r24, r24
    2616:	99 1f       	adc	r25, r25
    2618:	fc 01       	movw	r30, r24
    261a:	ea 55       	subi	r30, 0x5A	; 90
    261c:	fc 4f       	sbci	r31, 0xFC	; 252
    261e:	20 83       	st	Z, r18
					keysDebounceCount[ind][1].cur = keyState_notPressed;
    2620:	89 81       	ldd	r24, Y+1	; 0x01
    2622:	28 2f       	mov	r18, r24
    2624:	30 e0       	ldi	r19, 0x00	; 0
    2626:	c9 01       	movw	r24, r18
    2628:	88 0f       	add	r24, r24
    262a:	99 1f       	adc	r25, r25
    262c:	82 0f       	add	r24, r18
    262e:	93 1f       	adc	r25, r19
    2630:	88 0f       	add	r24, r24
    2632:	99 1f       	adc	r25, r25
    2634:	88 0f       	add	r24, r24
    2636:	99 1f       	adc	r25, r25
    2638:	fc 01       	movw	r30, r24
    263a:	e1 56       	subi	r30, 0x61	; 97
    263c:	fc 4f       	sbci	r31, 0xFC	; 252
    263e:	81 e0       	ldi	r24, 0x01	; 1
    2640:	80 83       	st	Z, r24
					keysDebounceCount[ind][2].cur = keyState_notPressed;
    2642:	89 81       	ldd	r24, Y+1	; 0x01
    2644:	28 2f       	mov	r18, r24
    2646:	30 e0       	ldi	r19, 0x00	; 0
    2648:	c9 01       	movw	r24, r18
    264a:	88 0f       	add	r24, r24
    264c:	99 1f       	adc	r25, r25
    264e:	82 0f       	add	r24, r18
    2650:	93 1f       	adc	r25, r19
    2652:	88 0f       	add	r24, r24
    2654:	99 1f       	adc	r25, r25
    2656:	88 0f       	add	r24, r24
    2658:	99 1f       	adc	r25, r25
    265a:	fc 01       	movw	r30, r24
    265c:	ee 55       	subi	r30, 0x5E	; 94
    265e:	fc 4f       	sbci	r31, 0xFC	; 252
    2660:	81 e0       	ldi	r24, 0x01	; 1
    2662:	80 83       	st	Z, r24
					keysDebounceCount[ind][0].cur = keyState_notPressed;
    2664:	89 81       	ldd	r24, Y+1	; 0x01
    2666:	28 2f       	mov	r18, r24
    2668:	30 e0       	ldi	r19, 0x00	; 0
    266a:	c9 01       	movw	r24, r18
    266c:	88 0f       	add	r24, r24
    266e:	99 1f       	adc	r25, r25
    2670:	82 0f       	add	r24, r18
    2672:	93 1f       	adc	r25, r19
    2674:	88 0f       	add	r24, r24
    2676:	99 1f       	adc	r25, r25
    2678:	88 0f       	add	r24, r24
    267a:	99 1f       	adc	r25, r25
    267c:	fc 01       	movw	r30, r24
    267e:	e4 56       	subi	r30, 0x64	; 100
    2680:	fc 4f       	sbci	r31, 0xFC	; 252
    2682:	81 e0       	ldi	r24, 0x01	; 1
    2684:	80 83       	st	Z, r24
    2686:	07 c0       	rjmp	.+14     	; 0x2696 <keypad_handler+0x8be>
{
	if(isReady)
	{
		u8 colsVal = 0;
		u8 ind;
		for(ind=0;ind<4;ind++)
    2688:	89 81       	ldd	r24, Y+1	; 0x01
    268a:	8f 5f       	subi	r24, 0xFF	; 255
    268c:	89 83       	std	Y+1, r24	; 0x01
    268e:	89 81       	ldd	r24, Y+1	; 0x01
    2690:	84 30       	cpi	r24, 0x04	; 4
    2692:	08 f4       	brcc	.+2      	; 0x2696 <keypad_handler+0x8be>
    2694:	af cb       	rjmp	.-2210   	; 0x1df4 <keypad_handler+0x1c>
					break;
				}
				break;
			}
		}
		if(ind == 4)
    2696:	89 81       	ldd	r24, Y+1	; 0x01
    2698:	84 30       	cpi	r24, 0x04	; 4
    269a:	71 f4       	brne	.+28     	; 0x26b8 <keypad_handler+0x8e0>
		{
			NO_KEY_count++;
    269c:	80 91 9b 03 	lds	r24, 0x039B
    26a0:	8f 5f       	subi	r24, 0xFF	; 255
    26a2:	80 93 9b 03 	sts	0x039B, r24
			if(NO_KEY_count == 5)
    26a6:	80 91 9b 03 	lds	r24, 0x039B
    26aa:	85 30       	cpi	r24, 0x05	; 5
    26ac:	29 f4       	brne	.+10     	; 0x26b8 <keypad_handler+0x8e0>
			{
				NO_KEY_count = 0;
    26ae:	10 92 9b 03 	sts	0x039B, r1
				pressedKey = LCD_NO_KEY;
    26b2:	8f ef       	ldi	r24, 0xFF	; 255
    26b4:	80 93 8b 00 	sts	0x008B, r24
			}
		}
		Dio_vidSetPinVal(keypadCfg[0],DIO_u8HIGH);
    26b8:	80 91 a7 00 	lds	r24, 0x00A7
    26bc:	61 e0       	ldi	r22, 0x01	; 1
    26be:	0e 94 4a 08 	call	0x1094	; 0x1094 <Dio_vidSetPinVal>
					Dio_vidSetPinVal(keypadCfg[1],DIO_u8HIGH);
    26c2:	80 91 a8 00 	lds	r24, 0x00A8
    26c6:	61 e0       	ldi	r22, 0x01	; 1
    26c8:	0e 94 4a 08 	call	0x1094	; 0x1094 <Dio_vidSetPinVal>
					Dio_vidSetPinVal(keypadCfg[2],DIO_u8HIGH);
    26cc:	80 91 a9 00 	lds	r24, 0x00A9
    26d0:	61 e0       	ldi	r22, 0x01	; 1
    26d2:	0e 94 4a 08 	call	0x1094	; 0x1094 <Dio_vidSetPinVal>
					Dio_vidSetPinVal(keypadCfg[3],DIO_u8HIGH);
    26d6:	80 91 aa 00 	lds	r24, 0x00AA
    26da:	61 e0       	ldi	r22, 0x01	; 1
    26dc:	0e 94 4a 08 	call	0x1094	; 0x1094 <Dio_vidSetPinVal>
	}
}
    26e0:	0f 90       	pop	r0
    26e2:	0f 90       	pop	r0
    26e4:	0f 90       	pop	r0
    26e6:	0f 90       	pop	r0
    26e8:	cf 91       	pop	r28
    26ea:	df 91       	pop	r29
    26ec:	08 95       	ret

000026ee <keypad_getKey>:


status_RT	keypad_getKey(u8* Key)
{
    26ee:	df 93       	push	r29
    26f0:	cf 93       	push	r28
    26f2:	00 d0       	rcall	.+0      	; 0x26f4 <keypad_getKey+0x6>
    26f4:	0f 92       	push	r0
    26f6:	cd b7       	in	r28, 0x3d	; 61
    26f8:	de b7       	in	r29, 0x3e	; 62
    26fa:	9b 83       	std	Y+3, r25	; 0x03
    26fc:	8a 83       	std	Y+2, r24	; 0x02
	status_RT status = RT_SUCCESS;
    26fe:	19 82       	std	Y+1, r1	; 0x01
	if(isReady)
    2700:	80 91 9a 03 	lds	r24, 0x039A
    2704:	88 23       	and	r24, r24
    2706:	31 f0       	breq	.+12     	; 0x2714 <keypad_getKey+0x26>
	{
		*Key = pressedKey;
    2708:	80 91 8b 00 	lds	r24, 0x008B
    270c:	ea 81       	ldd	r30, Y+2	; 0x02
    270e:	fb 81       	ldd	r31, Y+3	; 0x03
    2710:	80 83       	st	Z, r24
    2712:	02 c0       	rjmp	.+4      	; 0x2718 <keypad_getKey+0x2a>
	}
	else
	{
		status = RT_ERROR;
    2714:	81 e0       	ldi	r24, 0x01	; 1
    2716:	89 83       	std	Y+1, r24	; 0x01
	}
	return status;
    2718:	89 81       	ldd	r24, Y+1	; 0x01
}
    271a:	0f 90       	pop	r0
    271c:	0f 90       	pop	r0
    271e:	0f 90       	pop	r0
    2720:	cf 91       	pop	r28
    2722:	df 91       	pop	r29
    2724:	08 95       	ret

00002726 <SPEED_u8SetSpeed>:
#define NULL     (void*)0

static u8 Speed_u8SpeedKm ;

u8 SPEED_u8SetSpeed(u8 u8Speed_Copy)
{
    2726:	df 93       	push	r29
    2728:	cf 93       	push	r28
    272a:	00 d0       	rcall	.+0      	; 0x272c <SPEED_u8SetSpeed+0x6>
    272c:	00 d0       	rcall	.+0      	; 0x272e <SPEED_u8SetSpeed+0x8>
    272e:	cd b7       	in	r28, 0x3d	; 61
    2730:	de b7       	in	r29, 0x3e	; 62
    2732:	8a 83       	std	Y+2, r24	; 0x02
	u8 u8Local_ErrState = E_OK ;
    2734:	19 82       	std	Y+1, r1	; 0x01

	switch(u8Speed_Copy)
    2736:	8a 81       	ldd	r24, Y+2	; 0x02
    2738:	28 2f       	mov	r18, r24
    273a:	30 e0       	ldi	r19, 0x00	; 0
    273c:	3c 83       	std	Y+4, r19	; 0x04
    273e:	2b 83       	std	Y+3, r18	; 0x03
    2740:	8b 81       	ldd	r24, Y+3	; 0x03
    2742:	9c 81       	ldd	r25, Y+4	; 0x04
    2744:	82 30       	cpi	r24, 0x02	; 2
    2746:	91 05       	cpc	r25, r1
    2748:	e1 f1       	breq	.+120    	; 0x27c2 <SPEED_u8SetSpeed+0x9c>
    274a:	2b 81       	ldd	r18, Y+3	; 0x03
    274c:	3c 81       	ldd	r19, Y+4	; 0x04
    274e:	23 30       	cpi	r18, 0x03	; 3
    2750:	31 05       	cpc	r19, r1
    2752:	54 f4       	brge	.+20     	; 0x2768 <SPEED_u8SetSpeed+0x42>
    2754:	8b 81       	ldd	r24, Y+3	; 0x03
    2756:	9c 81       	ldd	r25, Y+4	; 0x04
    2758:	00 97       	sbiw	r24, 0x00	; 0
    275a:	89 f0       	breq	.+34     	; 0x277e <SPEED_u8SetSpeed+0x58>
    275c:	2b 81       	ldd	r18, Y+3	; 0x03
    275e:	3c 81       	ldd	r19, Y+4	; 0x04
    2760:	21 30       	cpi	r18, 0x01	; 1
    2762:	31 05       	cpc	r19, r1
    2764:	b1 f0       	breq	.+44     	; 0x2792 <SPEED_u8SetSpeed+0x6c>
    2766:	3d c0       	rjmp	.+122    	; 0x27e2 <SPEED_u8SetSpeed+0xbc>
    2768:	8b 81       	ldd	r24, Y+3	; 0x03
    276a:	9c 81       	ldd	r25, Y+4	; 0x04
    276c:	83 30       	cpi	r24, 0x03	; 3
    276e:	91 05       	cpc	r25, r1
    2770:	d1 f0       	breq	.+52     	; 0x27a6 <SPEED_u8SetSpeed+0x80>
    2772:	2b 81       	ldd	r18, Y+3	; 0x03
    2774:	3c 81       	ldd	r19, Y+4	; 0x04
    2776:	24 30       	cpi	r18, 0x04	; 4
    2778:	31 05       	cpc	r19, r1
    277a:	81 f1       	breq	.+96     	; 0x27dc <SPEED_u8SetSpeed+0xb6>
    277c:	32 c0       	rjmp	.+100    	; 0x27e2 <SPEED_u8SetSpeed+0xbc>
	{
	case SPEED_u8INC_BY_ONE :
		if(Speed_u8SpeedKm <=180)
    277e:	80 91 cc 03 	lds	r24, 0x03CC
    2782:	85 3b       	cpi	r24, 0xB5	; 181
    2784:	80 f5       	brcc	.+96     	; 0x27e6 <SPEED_u8SetSpeed+0xc0>
		{
			Speed_u8SpeedKm++ ;
    2786:	80 91 cc 03 	lds	r24, 0x03CC
    278a:	8f 5f       	subi	r24, 0xFF	; 255
    278c:	80 93 cc 03 	sts	0x03CC, r24
    2790:	2a c0       	rjmp	.+84     	; 0x27e6 <SPEED_u8SetSpeed+0xc0>
		}
		break;
	case SPEED_u8DEC_BY_ONE :
		if(Speed_u8SpeedKm > 0)
    2792:	80 91 cc 03 	lds	r24, 0x03CC
    2796:	88 23       	and	r24, r24
    2798:	31 f1       	breq	.+76     	; 0x27e6 <SPEED_u8SetSpeed+0xc0>
		{
			Speed_u8SpeedKm-- ;
    279a:	80 91 cc 03 	lds	r24, 0x03CC
    279e:	81 50       	subi	r24, 0x01	; 1
    27a0:	80 93 cc 03 	sts	0x03CC, r24
    27a4:	20 c0       	rjmp	.+64     	; 0x27e6 <SPEED_u8SetSpeed+0xc0>
		}
		break;
	case SPEED_u8INC_BY_TEN :
		if(Speed_u8SpeedKm < 170)
    27a6:	80 91 cc 03 	lds	r24, 0x03CC
    27aa:	8a 3a       	cpi	r24, 0xAA	; 170
    27ac:	30 f4       	brcc	.+12     	; 0x27ba <SPEED_u8SetSpeed+0x94>
		{
			Speed_u8SpeedKm += 10 ;
    27ae:	80 91 cc 03 	lds	r24, 0x03CC
    27b2:	86 5f       	subi	r24, 0xF6	; 246
    27b4:	80 93 cc 03 	sts	0x03CC, r24
    27b8:	16 c0       	rjmp	.+44     	; 0x27e6 <SPEED_u8SetSpeed+0xc0>
		}
		else
		{
			Speed_u8SpeedKm = 180  ;
    27ba:	84 eb       	ldi	r24, 0xB4	; 180
    27bc:	80 93 cc 03 	sts	0x03CC, r24
    27c0:	12 c0       	rjmp	.+36     	; 0x27e6 <SPEED_u8SetSpeed+0xc0>
		}
		break;

	case SPEED_u8DEC_BY_TEN :
		if(Speed_u8SpeedKm > 10)
    27c2:	80 91 cc 03 	lds	r24, 0x03CC
    27c6:	8b 30       	cpi	r24, 0x0B	; 11
    27c8:	30 f0       	brcs	.+12     	; 0x27d6 <SPEED_u8SetSpeed+0xb0>
		{
			Speed_u8SpeedKm -=10 ;
    27ca:	80 91 cc 03 	lds	r24, 0x03CC
    27ce:	8a 50       	subi	r24, 0x0A	; 10
    27d0:	80 93 cc 03 	sts	0x03CC, r24
    27d4:	08 c0       	rjmp	.+16     	; 0x27e6 <SPEED_u8SetSpeed+0xc0>
		}
		else
		{
			Speed_u8SpeedKm = 0 ;
    27d6:	10 92 cc 03 	sts	0x03CC, r1
    27da:	05 c0       	rjmp	.+10     	; 0x27e6 <SPEED_u8SetSpeed+0xc0>
		}
		break;
	case SPEED_u8BREAK :
		Speed_u8SpeedKm = 0;
    27dc:	10 92 cc 03 	sts	0x03CC, r1
    27e0:	02 c0       	rjmp	.+4      	; 0x27e6 <SPEED_u8SetSpeed+0xc0>
		break;
	default:
		u8Local_ErrState = E_NOK ;
    27e2:	81 e0       	ldi	r24, 0x01	; 1
    27e4:	89 83       	std	Y+1, r24	; 0x01

	}
	return u8Local_ErrState ;
    27e6:	89 81       	ldd	r24, Y+1	; 0x01
}
    27e8:	0f 90       	pop	r0
    27ea:	0f 90       	pop	r0
    27ec:	0f 90       	pop	r0
    27ee:	0f 90       	pop	r0
    27f0:	cf 91       	pop	r28
    27f2:	df 91       	pop	r29
    27f4:	08 95       	ret

000027f6 <SPEED_u8GetSpeed>:
u8 SPEED_u8GetSpeed(u8 * pu8Speed)
{
    27f6:	df 93       	push	r29
    27f8:	cf 93       	push	r28
    27fa:	00 d0       	rcall	.+0      	; 0x27fc <SPEED_u8GetSpeed+0x6>
    27fc:	0f 92       	push	r0
    27fe:	cd b7       	in	r28, 0x3d	; 61
    2800:	de b7       	in	r29, 0x3e	; 62
    2802:	9b 83       	std	Y+3, r25	; 0x03
    2804:	8a 83       	std	Y+2, r24	; 0x02
	u8 u8Local_ErrState = E_OK ;
    2806:	19 82       	std	Y+1, r1	; 0x01
	if(pu8Speed == NULL)
    2808:	8a 81       	ldd	r24, Y+2	; 0x02
    280a:	9b 81       	ldd	r25, Y+3	; 0x03
    280c:	00 97       	sbiw	r24, 0x00	; 0
    280e:	19 f4       	brne	.+6      	; 0x2816 <SPEED_u8GetSpeed+0x20>
	{
		u8Local_ErrState = E_NOK ;
    2810:	81 e0       	ldi	r24, 0x01	; 1
    2812:	89 83       	std	Y+1, r24	; 0x01
    2814:	05 c0       	rjmp	.+10     	; 0x2820 <SPEED_u8GetSpeed+0x2a>
	}
	else
	{
		*pu8Speed = Speed_u8SpeedKm ;
    2816:	80 91 cc 03 	lds	r24, 0x03CC
    281a:	ea 81       	ldd	r30, Y+2	; 0x02
    281c:	fb 81       	ldd	r31, Y+3	; 0x03
    281e:	80 83       	st	Z, r24
	}

	return u8Local_ErrState ;
    2820:	89 81       	ldd	r24, Y+1	; 0x01


}
    2822:	0f 90       	pop	r0
    2824:	0f 90       	pop	r0
    2826:	0f 90       	pop	r0
    2828:	cf 91       	pop	r28
    282a:	df 91       	pop	r29
    282c:	08 95       	ret

0000282e <SensorManager_vidInit>:


static u8 KeyPad_Read ;
static u8 Temp_Read ;

void SensorManager_vidInit(void){
    282e:	df 93       	push	r29
    2830:	cf 93       	push	r28
    2832:	cd b7       	in	r28, 0x3d	; 61
    2834:	de b7       	in	r29, 0x3e	; 62

	SwTimer_register_cbf(50,SwTimerMode_periodic,SensorManager_vidGetSensorRead);
    2836:	2e e2       	ldi	r18, 0x2E	; 46
    2838:	34 e1       	ldi	r19, 0x14	; 20
    283a:	82 e3       	ldi	r24, 0x32	; 50
    283c:	90 e0       	ldi	r25, 0x00	; 0
    283e:	60 e0       	ldi	r22, 0x00	; 0
    2840:	a9 01       	movw	r20, r18
    2842:	0e 94 49 00 	call	0x92	; 0x92 <SwTimer_register_cbf>

	SwTimer_register_cbf(500,SwTimerMode_periodic,SensorManager_vidGetTempRead);
    2846:	29 ec       	ldi	r18, 0xC9	; 201
    2848:	34 e1       	ldi	r19, 0x14	; 20
    284a:	84 ef       	ldi	r24, 0xF4	; 244
    284c:	91 e0       	ldi	r25, 0x01	; 1
    284e:	60 e0       	ldi	r22, 0x00	; 0
    2850:	a9 01       	movw	r20, r18
    2852:	0e 94 49 00 	call	0x92	; 0x92 <SwTimer_register_cbf>

}
    2856:	cf 91       	pop	r28
    2858:	df 91       	pop	r29
    285a:	08 95       	ret

0000285c <SensorManager_vidGetSensorRead>:




static void SensorManager_vidGetSensorRead(void){
    285c:	df 93       	push	r29
    285e:	cf 93       	push	r28
    2860:	00 d0       	rcall	.+0      	; 0x2862 <SensorManager_vidGetSensorRead+0x6>
    2862:	cd b7       	in	r28, 0x3d	; 61
    2864:	de b7       	in	r29, 0x3e	; 62

	static u8 count ;
	keypad_getKey(&KeyPad_Read);
    2866:	8f ec       	ldi	r24, 0xCF	; 207
    2868:	93 e0       	ldi	r25, 0x03	; 3
    286a:	0e 94 77 13 	call	0x26ee	; 0x26ee <keypad_getKey>

	switch (KeyPad_Read){
    286e:	80 91 cf 03 	lds	r24, 0x03CF
    2872:	28 2f       	mov	r18, r24
    2874:	30 e0       	ldi	r19, 0x00	; 0
    2876:	3a 83       	std	Y+2, r19	; 0x02
    2878:	29 83       	std	Y+1, r18	; 0x01
    287a:	89 81       	ldd	r24, Y+1	; 0x01
    287c:	9a 81       	ldd	r25, Y+2	; 0x02
    287e:	85 33       	cpi	r24, 0x35	; 53
    2880:	91 05       	cpc	r25, r1
    2882:	09 f4       	brne	.+2      	; 0x2886 <SensorManager_vidGetSensorRead+0x2a>
    2884:	52 c0       	rjmp	.+164    	; 0x292a <SensorManager_vidGetSensorRead+0xce>
    2886:	29 81       	ldd	r18, Y+1	; 0x01
    2888:	3a 81       	ldd	r19, Y+2	; 0x02
    288a:	26 33       	cpi	r18, 0x36	; 54
    288c:	31 05       	cpc	r19, r1
    288e:	dc f4       	brge	.+54     	; 0x28c6 <SensorManager_vidGetSensorRead+0x6a>
    2890:	89 81       	ldd	r24, Y+1	; 0x01
    2892:	9a 81       	ldd	r25, Y+2	; 0x02
    2894:	82 33       	cpi	r24, 0x32	; 50
    2896:	91 05       	cpc	r25, r1
    2898:	89 f1       	breq	.+98     	; 0x28fc <SensorManager_vidGetSensorRead+0xa0>
    289a:	29 81       	ldd	r18, Y+1	; 0x01
    289c:	3a 81       	ldd	r19, Y+2	; 0x02
    289e:	23 33       	cpi	r18, 0x33	; 51
    28a0:	31 05       	cpc	r19, r1
    28a2:	34 f4       	brge	.+12     	; 0x28b0 <SensorManager_vidGetSensorRead+0x54>
    28a4:	89 81       	ldd	r24, Y+1	; 0x01
    28a6:	9a 81       	ldd	r25, Y+2	; 0x02
    28a8:	81 33       	cpi	r24, 0x31	; 49
    28aa:	91 05       	cpc	r25, r1
    28ac:	19 f1       	breq	.+70     	; 0x28f4 <SensorManager_vidGetSensorRead+0x98>
    28ae:	61 c0       	rjmp	.+194    	; 0x2972 <SensorManager_vidGetSensorRead+0x116>
    28b0:	29 81       	ldd	r18, Y+1	; 0x01
    28b2:	3a 81       	ldd	r19, Y+2	; 0x02
    28b4:	23 33       	cpi	r18, 0x33	; 51
    28b6:	31 05       	cpc	r19, r1
    28b8:	29 f1       	breq	.+74     	; 0x2904 <SensorManager_vidGetSensorRead+0xa8>
    28ba:	89 81       	ldd	r24, Y+1	; 0x01
    28bc:	9a 81       	ldd	r25, Y+2	; 0x02
    28be:	84 33       	cpi	r24, 0x34	; 52
    28c0:	91 05       	cpc	r25, r1
    28c2:	79 f1       	breq	.+94     	; 0x2922 <SensorManager_vidGetSensorRead+0xc6>
    28c4:	56 c0       	rjmp	.+172    	; 0x2972 <SensorManager_vidGetSensorRead+0x116>
    28c6:	29 81       	ldd	r18, Y+1	; 0x01
    28c8:	3a 81       	ldd	r19, Y+2	; 0x02
    28ca:	27 33       	cpi	r18, 0x37	; 55
    28cc:	31 05       	cpc	r19, r1
    28ce:	09 f4       	brne	.+2      	; 0x28d2 <SensorManager_vidGetSensorRead+0x76>
    28d0:	42 c0       	rjmp	.+132    	; 0x2956 <SensorManager_vidGetSensorRead+0xfa>
    28d2:	89 81       	ldd	r24, Y+1	; 0x01
    28d4:	9a 81       	ldd	r25, Y+2	; 0x02
    28d6:	87 33       	cpi	r24, 0x37	; 55
    28d8:	91 05       	cpc	r25, r1
    28da:	5c f1       	brlt	.+86     	; 0x2932 <SensorManager_vidGetSensorRead+0xd6>
    28dc:	29 81       	ldd	r18, Y+1	; 0x01
    28de:	3a 81       	ldd	r19, Y+2	; 0x02
    28e0:	28 33       	cpi	r18, 0x38	; 56
    28e2:	31 05       	cpc	r19, r1
    28e4:	09 f4       	brne	.+2      	; 0x28e8 <SensorManager_vidGetSensorRead+0x8c>
    28e6:	3c c0       	rjmp	.+120    	; 0x2960 <SensorManager_vidGetSensorRead+0x104>
    28e8:	89 81       	ldd	r24, Y+1	; 0x01
    28ea:	9a 81       	ldd	r25, Y+2	; 0x02
    28ec:	89 33       	cpi	r24, 0x39	; 57
    28ee:	91 05       	cpc	r25, r1
    28f0:	e1 f1       	breq	.+120    	; 0x296a <SensorManager_vidGetSensorRead+0x10e>
    28f2:	3f c0       	rjmp	.+126    	; 0x2972 <SensorManager_vidGetSensorRead+0x116>
	case SPEED_PLUS_ONE:
		SPEED_u8SetSpeed(SPEED_u8INC_BY_ONE);
    28f4:	80 e0       	ldi	r24, 0x00	; 0
    28f6:	0e 94 93 13 	call	0x2726	; 0x2726 <SPEED_u8SetSpeed>
    28fa:	46 c0       	rjmp	.+140    	; 0x2988 <SensorManager_vidGetSensorRead+0x12c>

		break;
	case SPEED_MINUS_ONE:

		SPEED_u8SetSpeed(SPEED_u8DEC_BY_ONE);
    28fc:	81 e0       	ldi	r24, 0x01	; 1
    28fe:	0e 94 93 13 	call	0x2726	; 0x2726 <SPEED_u8SetSpeed>
    2902:	42 c0       	rjmp	.+132    	; 0x2988 <SensorManager_vidGetSensorRead+0x12c>
		break;
	case IGNITION_ON:
		count++ ;
    2904:	80 91 cd 03 	lds	r24, 0x03CD
    2908:	8f 5f       	subi	r24, 0xFF	; 255
    290a:	80 93 cd 03 	sts	0x03CD, r24
		if (count == 200){
    290e:	80 91 cd 03 	lds	r24, 0x03CD
    2912:	88 3c       	cpi	r24, 0xC8	; 200
    2914:	c9 f5       	brne	.+114    	; 0x2988 <SensorManager_vidGetSensorRead+0x12c>
			count = 0 ;
    2916:	10 92 cd 03 	sts	0x03CD, r1
			Ignition_u8SetIgntion(IGNITION_u8ON);
    291a:	81 e0       	ldi	r24, 0x01	; 1
    291c:	0e 94 f9 14 	call	0x29f2	; 0x29f2 <Ignition_u8SetIgntion>
    2920:	33 c0       	rjmp	.+102    	; 0x2988 <SensorManager_vidGetSensorRead+0x12c>
		}
		//what happend if continously pressed!!

		break;
	case SPEED_PLUS_TEN:
		SPEED_u8SetSpeed(SPEED_u8INC_BY_TEN);
    2922:	83 e0       	ldi	r24, 0x03	; 3
    2924:	0e 94 93 13 	call	0x2726	; 0x2726 <SPEED_u8SetSpeed>
    2928:	2f c0       	rjmp	.+94     	; 0x2988 <SensorManager_vidGetSensorRead+0x12c>
		break;
	case SPEED_MINUS_TEN:
		SPEED_u8SetSpeed(SPEED_u8DEC_BY_TEN);
    292a:	82 e0       	ldi	r24, 0x02	; 2
    292c:	0e 94 93 13 	call	0x2726	; 0x2726 <SPEED_u8SetSpeed>
    2930:	2b c0       	rjmp	.+86     	; 0x2988 <SensorManager_vidGetSensorRead+0x12c>
		break;
	case IGNITION_OFF:
			Ignition_u8SetIgntion(IGNITION_u8OFF);
    2932:	80 e0       	ldi	r24, 0x00	; 0
    2934:	0e 94 f9 14 	call	0x29f2	; 0x29f2 <Ignition_u8SetIgntion>
			count++ ;
    2938:	80 91 cd 03 	lds	r24, 0x03CD
    293c:	8f 5f       	subi	r24, 0xFF	; 255
    293e:	80 93 cd 03 	sts	0x03CD, r24
			if (count == 200){
    2942:	80 91 cd 03 	lds	r24, 0x03CD
    2946:	88 3c       	cpi	r24, 0xC8	; 200
    2948:	f9 f4       	brne	.+62     	; 0x2988 <SensorManager_vidGetSensorRead+0x12c>
				count = 0 ;
    294a:	10 92 cd 03 	sts	0x03CD, r1
				Ignition_u8SetIgntion(IGNITION_u8OFF);
    294e:	80 e0       	ldi	r24, 0x00	; 0
    2950:	0e 94 f9 14 	call	0x29f2	; 0x29f2 <Ignition_u8SetIgntion>
    2954:	19 c0       	rjmp	.+50     	; 0x2988 <SensorManager_vidGetSensorRead+0x12c>
			}
			//what happend if continously pressed!!
		break;
	case RIGHT_DOOR_OPEN:
		Door_u8SetDoorStatus(DOOR_u8OPENED ,DOOR_u8RIGHTDOOR) ;
    2956:	81 e0       	ldi	r24, 0x01	; 1
    2958:	61 e0       	ldi	r22, 0x01	; 1
    295a:	0e 94 0c 15 	call	0x2a18	; 0x2a18 <Door_u8SetDoorStatus>
    295e:	14 c0       	rjmp	.+40     	; 0x2988 <SensorManager_vidGetSensorRead+0x12c>
		break;
	case LEFT_DOOR_OPEN:
		Door_u8SetDoorStatus(DOOR_u8OPENED ,DOOR_u8LEFTDOOR) ;
    2960:	81 e0       	ldi	r24, 0x01	; 1
    2962:	60 e0       	ldi	r22, 0x00	; 0
    2964:	0e 94 0c 15 	call	0x2a18	; 0x2a18 <Door_u8SetDoorStatus>
    2968:	0f c0       	rjmp	.+30     	; 0x2988 <SensorManager_vidGetSensorRead+0x12c>
		break;
	case SPEED_BREAK:
		SPEED_u8SetSpeed(SPEED_u8BREAK);
    296a:	84 e0       	ldi	r24, 0x04	; 4
    296c:	0e 94 93 13 	call	0x2726	; 0x2726 <SPEED_u8SetSpeed>
    2970:	0b c0       	rjmp	.+22     	; 0x2988 <SensorManager_vidGetSensorRead+0x12c>
		break;
	default:
		SPEED_u8SetSpeed(LCD_NO_KEY);
    2972:	8f ef       	ldi	r24, 0xFF	; 255
    2974:	0e 94 93 13 	call	0x2726	; 0x2726 <SPEED_u8SetSpeed>
		Door_u8SetDoorStatus(DOOR_u8CLOSED ,DOOR_u8RIGHTDOOR) ;
    2978:	80 e0       	ldi	r24, 0x00	; 0
    297a:	61 e0       	ldi	r22, 0x01	; 1
    297c:	0e 94 0c 15 	call	0x2a18	; 0x2a18 <Door_u8SetDoorStatus>
		Door_u8SetDoorStatus(DOOR_u8CLOSED ,DOOR_u8LEFTDOOR) ;
    2980:	80 e0       	ldi	r24, 0x00	; 0
    2982:	60 e0       	ldi	r22, 0x00	; 0
    2984:	0e 94 0c 15 	call	0x2a18	; 0x2a18 <Door_u8SetDoorStatus>
		break;
	}


}
    2988:	0f 90       	pop	r0
    298a:	0f 90       	pop	r0
    298c:	cf 91       	pop	r28
    298e:	df 91       	pop	r29
    2990:	08 95       	ret

00002992 <SensorManager_vidGetTempRead>:

static void SensorManager_vidGetTempRead(void){
    2992:	df 93       	push	r29
    2994:	cf 93       	push	r28
    2996:	cd b7       	in	r28, 0x3d	; 61
    2998:	de b7       	in	r29, 0x3e	; 62

	static u8 Timeout_counter  ;

	Temp_hal_u8GetEngineTemp(&Temp_Read);
    299a:	80 ed       	ldi	r24, 0xD0	; 208
    299c:	93 e0       	ldi	r25, 0x03	; 3
    299e:	0e 94 52 0a 	call	0x14a4	; 0x14a4 <Temp_hal_u8GetEngineTemp>
	if (Temp_Read == 0 ){
    29a2:	80 91 d0 03 	lds	r24, 0x03D0
    29a6:	88 23       	and	r24, r24
    29a8:	29 f4       	brne	.+10     	; 0x29b4 <SensorManager_vidGetTempRead+0x22>
		Timeout_counter++ ;
    29aa:	80 91 ce 03 	lds	r24, 0x03CE
    29ae:	8f 5f       	subi	r24, 0xFF	; 255
    29b0:	80 93 ce 03 	sts	0x03CE, r24


	}


}
    29b4:	cf 91       	pop	r28
    29b6:	df 91       	pop	r29
    29b8:	08 95       	ret

000029ba <Ignition_u8GetIgntion>:

static u8 Ignition_u8Status = 0 ;


u8 Ignition_u8GetIgntion(u8 * pu8_Status)
{
    29ba:	df 93       	push	r29
    29bc:	cf 93       	push	r28
    29be:	00 d0       	rcall	.+0      	; 0x29c0 <Ignition_u8GetIgntion+0x6>
    29c0:	0f 92       	push	r0
    29c2:	cd b7       	in	r28, 0x3d	; 61
    29c4:	de b7       	in	r29, 0x3e	; 62
    29c6:	9b 83       	std	Y+3, r25	; 0x03
    29c8:	8a 83       	std	Y+2, r24	; 0x02
	u8 Local_u8ErrState = RT_SUCCESS ;
    29ca:	19 82       	std	Y+1, r1	; 0x01

	if(pu8_Status ==NULL)
    29cc:	8a 81       	ldd	r24, Y+2	; 0x02
    29ce:	9b 81       	ldd	r25, Y+3	; 0x03
    29d0:	00 97       	sbiw	r24, 0x00	; 0
    29d2:	19 f4       	brne	.+6      	; 0x29da <Ignition_u8GetIgntion+0x20>
	{
		Local_u8ErrState = RT_ERROR ;
    29d4:	81 e0       	ldi	r24, 0x01	; 1
    29d6:	89 83       	std	Y+1, r24	; 0x01
    29d8:	05 c0       	rjmp	.+10     	; 0x29e4 <Ignition_u8GetIgntion+0x2a>
	}
	else
	{
		* pu8_Status = Ignition_u8Status ;
    29da:	80 91 d1 03 	lds	r24, 0x03D1
    29de:	ea 81       	ldd	r30, Y+2	; 0x02
    29e0:	fb 81       	ldd	r31, Y+3	; 0x03
    29e2:	80 83       	st	Z, r24
	}

	return Local_u8ErrState ;
    29e4:	89 81       	ldd	r24, Y+1	; 0x01

}
    29e6:	0f 90       	pop	r0
    29e8:	0f 90       	pop	r0
    29ea:	0f 90       	pop	r0
    29ec:	cf 91       	pop	r28
    29ee:	df 91       	pop	r29
    29f0:	08 95       	ret

000029f2 <Ignition_u8SetIgntion>:
u8 Ignition_u8SetIgntion(u8 u8Status_Copy)
{
    29f2:	df 93       	push	r29
    29f4:	cf 93       	push	r28
    29f6:	00 d0       	rcall	.+0      	; 0x29f8 <Ignition_u8SetIgntion+0x6>
    29f8:	cd b7       	in	r28, 0x3d	; 61
    29fa:	de b7       	in	r29, 0x3e	; 62
    29fc:	8a 83       	std	Y+2, r24	; 0x02

	u8 Local_u8ErrState = RT_SUCCESS ;
    29fe:	19 82       	std	Y+1, r1	; 0x01

	if(u8Status_Copy > IGNITION_u8ON)
    2a00:	8a 81       	ldd	r24, Y+2	; 0x02
    2a02:	82 30       	cpi	r24, 0x02	; 2
    2a04:	18 f0       	brcs	.+6      	; 0x2a0c <Ignition_u8SetIgntion+0x1a>
	{
		Ignition_u8Status  = u8Status_Copy  ;
    2a06:	8a 81       	ldd	r24, Y+2	; 0x02
    2a08:	80 93 d1 03 	sts	0x03D1, r24
	}

	return Local_u8ErrState ;
    2a0c:	89 81       	ldd	r24, Y+1	; 0x01

}
    2a0e:	0f 90       	pop	r0
    2a10:	0f 90       	pop	r0
    2a12:	cf 91       	pop	r28
    2a14:	df 91       	pop	r29
    2a16:	08 95       	ret

00002a18 <Door_u8SetDoorStatus>:
#define NULL						(void *)0

u8 DOOR_u8arrDoorStatus [DOORS_u8DOOR_NUMBER];

u8 Door_u8SetDoorStatus( u8 u8Door_Copy,u8 u8Statues_Copy)
{
    2a18:	df 93       	push	r29
    2a1a:	cf 93       	push	r28
    2a1c:	00 d0       	rcall	.+0      	; 0x2a1e <Door_u8SetDoorStatus+0x6>
    2a1e:	0f 92       	push	r0
    2a20:	cd b7       	in	r28, 0x3d	; 61
    2a22:	de b7       	in	r29, 0x3e	; 62
    2a24:	8a 83       	std	Y+2, r24	; 0x02
    2a26:	6b 83       	std	Y+3, r22	; 0x03
	u8 Local_errState = RT_SUCCESS ;
    2a28:	19 82       	std	Y+1, r1	; 0x01

	if(u8Statues_Copy > DOOR_u8OPENED || u8Door_Copy > DOOR_u8RIGHTDOOR )
    2a2a:	8b 81       	ldd	r24, Y+3	; 0x03
    2a2c:	82 30       	cpi	r24, 0x02	; 2
    2a2e:	18 f4       	brcc	.+6      	; 0x2a36 <Door_u8SetDoorStatus+0x1e>
    2a30:	8a 81       	ldd	r24, Y+2	; 0x02
    2a32:	82 30       	cpi	r24, 0x02	; 2
    2a34:	18 f0       	brcs	.+6      	; 0x2a3c <Door_u8SetDoorStatus+0x24>
	{
		Local_errState = RT_ERROR ;
    2a36:	81 e0       	ldi	r24, 0x01	; 1
    2a38:	89 83       	std	Y+1, r24	; 0x01
    2a3a:	08 c0       	rjmp	.+16     	; 0x2a4c <Door_u8SetDoorStatus+0x34>
	}
	else
	{
		DOOR_u8arrDoorStatus[u8Door_Copy] = u8Statues_Copy ;
    2a3c:	8a 81       	ldd	r24, Y+2	; 0x02
    2a3e:	88 2f       	mov	r24, r24
    2a40:	90 e0       	ldi	r25, 0x00	; 0
    2a42:	fc 01       	movw	r30, r24
    2a44:	ee 51       	subi	r30, 0x1E	; 30
    2a46:	fc 4f       	sbci	r31, 0xFC	; 252
    2a48:	8b 81       	ldd	r24, Y+3	; 0x03
    2a4a:	80 83       	st	Z, r24
	}
	return Local_errState ;
    2a4c:	89 81       	ldd	r24, Y+1	; 0x01
}
    2a4e:	0f 90       	pop	r0
    2a50:	0f 90       	pop	r0
    2a52:	0f 90       	pop	r0
    2a54:	cf 91       	pop	r28
    2a56:	df 91       	pop	r29
    2a58:	08 95       	ret

00002a5a <Door_u8GetDoorStatus>:
u8 Door_u8GetDoorStatus(u8 u8Door_Copy , u8 * pu8_status)
{
    2a5a:	df 93       	push	r29
    2a5c:	cf 93       	push	r28
    2a5e:	00 d0       	rcall	.+0      	; 0x2a60 <Door_u8GetDoorStatus+0x6>
    2a60:	00 d0       	rcall	.+0      	; 0x2a62 <Door_u8GetDoorStatus+0x8>
    2a62:	cd b7       	in	r28, 0x3d	; 61
    2a64:	de b7       	in	r29, 0x3e	; 62
    2a66:	8a 83       	std	Y+2, r24	; 0x02
    2a68:	7c 83       	std	Y+4, r23	; 0x04
    2a6a:	6b 83       	std	Y+3, r22	; 0x03
	u8 Local_errState = RT_SUCCESS ;
    2a6c:	19 82       	std	Y+1, r1	; 0x01

	if(pu8_status == NULL || u8Door_Copy > DOOR_u8RIGHTDOOR )
    2a6e:	8b 81       	ldd	r24, Y+3	; 0x03
    2a70:	9c 81       	ldd	r25, Y+4	; 0x04
    2a72:	00 97       	sbiw	r24, 0x00	; 0
    2a74:	19 f0       	breq	.+6      	; 0x2a7c <Door_u8GetDoorStatus+0x22>
    2a76:	8a 81       	ldd	r24, Y+2	; 0x02
    2a78:	82 30       	cpi	r24, 0x02	; 2
    2a7a:	18 f0       	brcs	.+6      	; 0x2a82 <Door_u8GetDoorStatus+0x28>
	{
		Local_errState = RT_ERROR ;
    2a7c:	81 e0       	ldi	r24, 0x01	; 1
    2a7e:	89 83       	std	Y+1, r24	; 0x01
    2a80:	0a c0       	rjmp	.+20     	; 0x2a96 <Door_u8GetDoorStatus+0x3c>
	}
	else
	{
		*pu8_status = DOOR_u8arrDoorStatus[u8Door_Copy] ;
    2a82:	8a 81       	ldd	r24, Y+2	; 0x02
    2a84:	88 2f       	mov	r24, r24
    2a86:	90 e0       	ldi	r25, 0x00	; 0
    2a88:	fc 01       	movw	r30, r24
    2a8a:	ee 51       	subi	r30, 0x1E	; 30
    2a8c:	fc 4f       	sbci	r31, 0xFC	; 252
    2a8e:	80 81       	ld	r24, Z
    2a90:	eb 81       	ldd	r30, Y+3	; 0x03
    2a92:	fc 81       	ldd	r31, Y+4	; 0x04
    2a94:	80 83       	st	Z, r24
	}
	return Local_errState ;
    2a96:	89 81       	ldd	r24, Y+1	; 0x01

}
    2a98:	0f 90       	pop	r0
    2a9a:	0f 90       	pop	r0
    2a9c:	0f 90       	pop	r0
    2a9e:	0f 90       	pop	r0
    2aa0:	cf 91       	pop	r28
    2aa2:	df 91       	pop	r29
    2aa4:	08 95       	ret

00002aa6 <main>:
static void itoa (u8 Copy_u8Value,u8 *Copy_pu8Arr);

static u8 str[10] ;

int main(void)
{
    2aa6:	df 93       	push	r29
    2aa8:	cf 93       	push	r28
    2aaa:	cd b7       	in	r28, 0x3d	; 61
    2aac:	de b7       	in	r29, 0x3e	; 62
	//u8 key;
	_SREG.Bits.Bit7 = 1;
    2aae:	ef e5       	ldi	r30, 0x5F	; 95
    2ab0:	f0 e0       	ldi	r31, 0x00	; 0
    2ab2:	80 81       	ld	r24, Z
    2ab4:	80 68       	ori	r24, 0x80	; 128
    2ab6:	80 83       	st	Z, r24
	Port_vidInit();
    2ab8:	0e 94 00 04 	call	0x800	; 0x800 <Port_vidInit>
	SwTimer_init();
    2abc:	0e 94 cd 01 	call	0x39a	; 0x39a <SwTimer_init>
	lcd_init();
    2ac0:	0e 94 f8 0b 	call	0x17f0	; 0x17f0 <lcd_init>
	keypad_init();
    2ac4:	0e 94 76 0e 	call	0x1cec	; 0x1cec <keypad_init>
	Temp_hal_u8Init();
    2ac8:	0e 94 3c 0a 	call	0x1478	; 0x1478 <Temp_hal_u8Init>
	SensorManager_vidInit();
    2acc:	0e 94 17 14 	call	0x282e	; 0x282e <SensorManager_vidInit>

	while(1)
	{

		DashboardManager_vidLcdDisplay();
    2ad0:	0e 94 6b 15 	call	0x2ad6	; 0x2ad6 <DashboardManager_vidLcdDisplay>
    2ad4:	fd cf       	rjmp	.-6      	; 0x2ad0 <main+0x2a>

00002ad6 <DashboardManager_vidLcdDisplay>:
	}
	return 0;
}


static void DashboardManager_vidLcdDisplay(void){
    2ad6:	df 93       	push	r29
    2ad8:	cf 93       	push	r28
    2ada:	cd b7       	in	r28, 0x3d	; 61
    2adc:	de b7       	in	r29, 0x3e	; 62

	static u8 IgnitionState = IGNITION_u8OFF ;

	Ignition_u8GetIgntion(&IgnitionState);
    2ade:	82 ed       	ldi	r24, 0xD2	; 210
    2ae0:	93 e0       	ldi	r25, 0x03	; 3
    2ae2:	0e 94 dd 14 	call	0x29ba	; 0x29ba <Ignition_u8GetIgntion>
	if (IgnitionState == IGNITION_u8ON ){
    2ae6:	80 91 d2 03 	lds	r24, 0x03D2
    2aea:	81 30       	cpi	r24, 0x01	; 1
    2aec:	39 f4       	brne	.+14     	; 0x2afc <DashboardManager_vidLcdDisplay+0x26>
		DashboardManager_vidDisplaySpeed();
    2aee:	0e 94 85 15 	call	0x2b0a	; 0x2b0a <DashboardManager_vidDisplaySpeed>
		DashboardManager_vidDisplayDoor();
    2af2:	0e 94 d7 15 	call	0x2bae	; 0x2bae <DashboardManager_vidDisplayDoor>
		DashboardManager_vidDisplayTemp();
    2af6:	0e 94 0b 16 	call	0x2c16	; 0x2c16 <DashboardManager_vidDisplayTemp>
    2afa:	04 c0       	rjmp	.+8      	; 0x2b04 <DashboardManager_vidLcdDisplay+0x2e>
	}
	else{

		while(lcd_clear()!=RT_PENDING);
    2afc:	0e 94 d6 0d 	call	0x1bac	; 0x1bac <lcd_clear>
    2b00:	83 30       	cpi	r24, 0x03	; 3
    2b02:	e1 f7       	brne	.-8      	; 0x2afc <DashboardManager_vidLcdDisplay+0x26>
	}

}
    2b04:	cf 91       	pop	r28
    2b06:	df 91       	pop	r29
    2b08:	08 95       	ret

00002b0a <DashboardManager_vidDisplaySpeed>:
static void DashboardManager_vidDisplaySpeed(void){
    2b0a:	df 93       	push	r29
    2b0c:	cf 93       	push	r28
    2b0e:	cd b7       	in	r28, 0x3d	; 61
    2b10:	de b7       	in	r29, 0x3e	; 62

	static u8 Speed = 5 ;
	SPEED_u8GetSpeed(&Speed);
    2b12:	8c e8       	ldi	r24, 0x8C	; 140
    2b14:	90 e0       	ldi	r25, 0x00	; 0
    2b16:	0e 94 fb 13 	call	0x27f6	; 0x27f6 <SPEED_u8GetSpeed>
	while(lcd_clear()!=RT_PENDING);
    2b1a:	0e 94 d6 0d 	call	0x1bac	; 0x1bac <lcd_clear>
    2b1e:	83 30       	cpi	r24, 0x03	; 3
    2b20:	e1 f7       	brne	.-8      	; 0x2b1a <DashboardManager_vidDisplaySpeed+0x10>
	while(lcd_writeString((const u8*)"S ") != RT_PENDING);
    2b22:	80 e6       	ldi	r24, 0x60	; 96
    2b24:	90 e0       	ldi	r25, 0x00	; 0
    2b26:	0e 94 f6 0d 	call	0x1bec	; 0x1bec <lcd_writeString>
    2b2a:	83 30       	cpi	r24, 0x03	; 3
    2b2c:	d1 f7       	brne	.-12     	; 0x2b22 <DashboardManager_vidDisplaySpeed+0x18>
	itoa (Speed,(u8*)&str);
    2b2e:	80 91 8c 00 	lds	r24, 0x008C
    2b32:	26 ed       	ldi	r18, 0xD6	; 214
    2b34:	33 e0       	ldi	r19, 0x03	; 3
    2b36:	b9 01       	movw	r22, r18
    2b38:	0e 94 12 16 	call	0x2c24	; 0x2c24 <itoa>
	if (Speed < 100 && Speed > 10 ){
    2b3c:	80 91 8c 00 	lds	r24, 0x008C
    2b40:	84 36       	cpi	r24, 0x64	; 100
    2b42:	58 f4       	brcc	.+22     	; 0x2b5a <DashboardManager_vidDisplaySpeed+0x50>
    2b44:	80 91 8c 00 	lds	r24, 0x008C
    2b48:	8b 30       	cpi	r24, 0x0B	; 11
    2b4a:	38 f0       	brcs	.+14     	; 0x2b5a <DashboardManager_vidDisplaySpeed+0x50>
		while(lcd_writeString((const u8*)"0") != RT_PENDING);
    2b4c:	83 e6       	ldi	r24, 0x63	; 99
    2b4e:	90 e0       	ldi	r25, 0x00	; 0
    2b50:	0e 94 f6 0d 	call	0x1bec	; 0x1bec <lcd_writeString>
    2b54:	83 30       	cpi	r24, 0x03	; 3
    2b56:	d1 f7       	brne	.-12     	; 0x2b4c <DashboardManager_vidDisplaySpeed+0x42>
    2b58:	0a c0       	rjmp	.+20     	; 0x2b6e <DashboardManager_vidDisplaySpeed+0x64>
	}
	else if (Speed < 10){
    2b5a:	80 91 8c 00 	lds	r24, 0x008C
    2b5e:	8a 30       	cpi	r24, 0x0A	; 10
    2b60:	30 f4       	brcc	.+12     	; 0x2b6e <DashboardManager_vidDisplaySpeed+0x64>
		while(lcd_writeString((const u8*)"00") != RT_PENDING);
    2b62:	85 e6       	ldi	r24, 0x65	; 101
    2b64:	90 e0       	ldi	r25, 0x00	; 0
    2b66:	0e 94 f6 0d 	call	0x1bec	; 0x1bec <lcd_writeString>
    2b6a:	83 30       	cpi	r24, 0x03	; 3
    2b6c:	d1 f7       	brne	.-12     	; 0x2b62 <DashboardManager_vidDisplaySpeed+0x58>
	}
	while(lcd_writeString((const u8*)&str) != RT_PENDING);
    2b6e:	86 ed       	ldi	r24, 0xD6	; 214
    2b70:	93 e0       	ldi	r25, 0x03	; 3
    2b72:	0e 94 f6 0d 	call	0x1bec	; 0x1bec <lcd_writeString>
    2b76:	83 30       	cpi	r24, 0x03	; 3
    2b78:	d1 f7       	brne	.-12     	; 0x2b6e <DashboardManager_vidDisplaySpeed+0x64>

	if (Speed > 150){
    2b7a:	80 91 8c 00 	lds	r24, 0x008C
    2b7e:	87 39       	cpi	r24, 0x97	; 151
    2b80:	50 f0       	brcs	.+20     	; 0x2b96 <DashboardManager_vidDisplaySpeed+0x8c>
		while(lcd_writeString((const u8*)"H") != RT_PENDING);
    2b82:	88 e6       	ldi	r24, 0x68	; 104
    2b84:	90 e0       	ldi	r25, 0x00	; 0
    2b86:	0e 94 f6 0d 	call	0x1bec	; 0x1bec <lcd_writeString>
    2b8a:	83 30       	cpi	r24, 0x03	; 3
    2b8c:	d1 f7       	brne	.-12     	; 0x2b82 <DashboardManager_vidDisplaySpeed+0x78>
		LED_vidTurnOn(LED_enuID_1);
    2b8e:	81 e0       	ldi	r24, 0x01	; 1
    2b90:	0e 94 66 0a 	call	0x14cc	; 0x14cc <LED_vidTurnOn>
    2b94:	09 c0       	rjmp	.+18     	; 0x2ba8 <DashboardManager_vidDisplaySpeed+0x9e>
	}
	else {
		while(lcd_writeString((const u8*)" ") != RT_PENDING);
    2b96:	8a e6       	ldi	r24, 0x6A	; 106
    2b98:	90 e0       	ldi	r25, 0x00	; 0
    2b9a:	0e 94 f6 0d 	call	0x1bec	; 0x1bec <lcd_writeString>
    2b9e:	83 30       	cpi	r24, 0x03	; 3
    2ba0:	d1 f7       	brne	.-12     	; 0x2b96 <DashboardManager_vidDisplaySpeed+0x8c>
		LED_vidTurnOff(LED_enuID_1);
    2ba2:	81 e0       	ldi	r24, 0x01	; 1
    2ba4:	0e 94 f0 0a 	call	0x15e0	; 0x15e0 <LED_vidTurnOff>
	}



}
    2ba8:	cf 91       	pop	r28
    2baa:	df 91       	pop	r29
    2bac:	08 95       	ret

00002bae <DashboardManager_vidDisplayDoor>:

static void DashboardManager_vidDisplayDoor(void){
    2bae:	df 93       	push	r29
    2bb0:	cf 93       	push	r28
    2bb2:	cd b7       	in	r28, 0x3d	; 61
    2bb4:	de b7       	in	r29, 0x3e	; 62

	static u8 Door_state[2] ;
	Door_u8GetDoorStatus(DOOR_u8LEFTDOOR , &Door_state[0]);
    2bb6:	23 ed       	ldi	r18, 0xD3	; 211
    2bb8:	33 e0       	ldi	r19, 0x03	; 3
    2bba:	80 e0       	ldi	r24, 0x00	; 0
    2bbc:	b9 01       	movw	r22, r18
    2bbe:	0e 94 2d 15 	call	0x2a5a	; 0x2a5a <Door_u8GetDoorStatus>
	Door_u8GetDoorStatus(DOOR_u8RIGHTDOOR , &Door_state[1]);
    2bc2:	24 ed       	ldi	r18, 0xD4	; 212
    2bc4:	33 e0       	ldi	r19, 0x03	; 3
    2bc6:	81 e0       	ldi	r24, 0x01	; 1
    2bc8:	b9 01       	movw	r22, r18
    2bca:	0e 94 2d 15 	call	0x2a5a	; 0x2a5a <Door_u8GetDoorStatus>
	while(lcd_writeString((const u8*)" D        ") != RT_PENDING);
    2bce:	8c e6       	ldi	r24, 0x6C	; 108
    2bd0:	90 e0       	ldi	r25, 0x00	; 0
    2bd2:	0e 94 f6 0d 	call	0x1bec	; 0x1bec <lcd_writeString>
    2bd6:	83 30       	cpi	r24, 0x03	; 3
    2bd8:	d1 f7       	brne	.-12     	; 0x2bce <DashboardManager_vidDisplayDoor+0x20>
	if (Door_state[0] == DOOR_u8OPENED || Door_state[1] == DOOR_u8OPENED  ){
    2bda:	80 91 d3 03 	lds	r24, 0x03D3
    2bde:	81 30       	cpi	r24, 0x01	; 1
    2be0:	21 f0       	breq	.+8      	; 0x2bea <DashboardManager_vidDisplayDoor+0x3c>
    2be2:	80 91 d4 03 	lds	r24, 0x03D4
    2be6:	81 30       	cpi	r24, 0x01	; 1
    2be8:	51 f4       	brne	.+20     	; 0x2bfe <DashboardManager_vidDisplayDoor+0x50>
		while(lcd_writeString((const u8*)"O        ") != RT_PENDING);
    2bea:	87 e7       	ldi	r24, 0x77	; 119
    2bec:	90 e0       	ldi	r25, 0x00	; 0
    2bee:	0e 94 f6 0d 	call	0x1bec	; 0x1bec <lcd_writeString>
    2bf2:	83 30       	cpi	r24, 0x03	; 3
    2bf4:	d1 f7       	brne	.-12     	; 0x2bea <DashboardManager_vidDisplayDoor+0x3c>
		LED_vidTurnOn(LED_enuID_0);
    2bf6:	80 e0       	ldi	r24, 0x00	; 0
    2bf8:	0e 94 66 0a 	call	0x14cc	; 0x14cc <LED_vidTurnOn>
    2bfc:	09 c0       	rjmp	.+18     	; 0x2c10 <DashboardManager_vidDisplayDoor+0x62>
	}
	else {
		while(lcd_writeString((const u8*)"C        ") != RT_PENDING);
    2bfe:	81 e8       	ldi	r24, 0x81	; 129
    2c00:	90 e0       	ldi	r25, 0x00	; 0
    2c02:	0e 94 f6 0d 	call	0x1bec	; 0x1bec <lcd_writeString>
    2c06:	83 30       	cpi	r24, 0x03	; 3
    2c08:	d1 f7       	brne	.-12     	; 0x2bfe <DashboardManager_vidDisplayDoor+0x50>
		LED_vidTurnOff(LED_enuID_0);
    2c0a:	80 e0       	ldi	r24, 0x00	; 0
    2c0c:	0e 94 f0 0a 	call	0x15e0	; 0x15e0 <LED_vidTurnOff>

	}


}
    2c10:	cf 91       	pop	r28
    2c12:	df 91       	pop	r29
    2c14:	08 95       	ret

00002c16 <DashboardManager_vidDisplayTemp>:

static void DashboardManager_vidDisplayTemp(void){
    2c16:	df 93       	push	r29
    2c18:	cf 93       	push	r28
    2c1a:	cd b7       	in	r28, 0x3d	; 61
    2c1c:	de b7       	in	r29, 0x3e	; 62


	static u8 Temp ;

}
    2c1e:	cf 91       	pop	r28
    2c20:	df 91       	pop	r29
    2c22:	08 95       	ret

00002c24 <itoa>:
 *
 * Input/Output Parameter:
 * 					- Not Applicable
 *
 **************************************************************************************/
static void itoa (u8 Copy_u8Value,u8 *Copy_pu8Arr){
    2c24:	df 93       	push	r29
    2c26:	cf 93       	push	r28
    2c28:	cd b7       	in	r28, 0x3d	; 61
    2c2a:	de b7       	in	r29, 0x3e	; 62
    2c2c:	2b 97       	sbiw	r28, 0x0b	; 11
    2c2e:	0f b6       	in	r0, 0x3f	; 63
    2c30:	f8 94       	cli
    2c32:	de bf       	out	0x3e, r29	; 62
    2c34:	0f be       	out	0x3f, r0	; 63
    2c36:	cd bf       	out	0x3d, r28	; 61
    2c38:	89 87       	std	Y+9, r24	; 0x09
    2c3a:	7b 87       	std	Y+11, r23	; 0x0b
    2c3c:	6a 87       	std	Y+10, r22	; 0x0a

	u8 Loc_u8NumLoopIdx=0;
    2c3e:	1c 82       	std	Y+4, r1	; 0x04
	u8 Loc_u8Digit=0;
    2c40:	1b 82       	std	Y+3, r1	; 0x03
	u8 Loc_u8ReverseArr[4];
	s8 Loc_u8ReverseCounter = 0 ;
    2c42:	1a 82       	std	Y+2, r1	; 0x02
	u8 Loc_u8Counter = 0 ;
    2c44:	19 82       	std	Y+1, r1	; 0x01

	do{
		/*Get the digit to be inserted in the array  */
		Loc_u8Digit = '0' + Copy_u8Value % 10;
    2c46:	89 85       	ldd	r24, Y+9	; 0x09
    2c48:	9a e0       	ldi	r25, 0x0A	; 10
    2c4a:	69 2f       	mov	r22, r25
    2c4c:	0e 94 76 16 	call	0x2cec	; 0x2cec <__udivmodqi4>
    2c50:	89 2f       	mov	r24, r25
    2c52:	80 5d       	subi	r24, 0xD0	; 208
    2c54:	8b 83       	std	Y+3, r24	; 0x03
		Loc_u8ReverseArr[Loc_u8NumLoopIdx] = Loc_u8Digit;
    2c56:	8c 81       	ldd	r24, Y+4	; 0x04
    2c58:	28 2f       	mov	r18, r24
    2c5a:	30 e0       	ldi	r19, 0x00	; 0
    2c5c:	ce 01       	movw	r24, r28
    2c5e:	05 96       	adiw	r24, 0x05	; 5
    2c60:	fc 01       	movw	r30, r24
    2c62:	e2 0f       	add	r30, r18
    2c64:	f3 1f       	adc	r31, r19
    2c66:	8b 81       	ldd	r24, Y+3	; 0x03
    2c68:	80 83       	st	Z, r24

		/*move to the next digit */
		Copy_u8Value /= 10;
    2c6a:	89 85       	ldd	r24, Y+9	; 0x09
    2c6c:	9a e0       	ldi	r25, 0x0A	; 10
    2c6e:	69 2f       	mov	r22, r25
    2c70:	0e 94 76 16 	call	0x2cec	; 0x2cec <__udivmodqi4>
    2c74:	89 87       	std	Y+9, r24	; 0x09
		Loc_u8NumLoopIdx++;
    2c76:	8c 81       	ldd	r24, Y+4	; 0x04
    2c78:	8f 5f       	subi	r24, 0xFF	; 255
    2c7a:	8c 83       	std	Y+4, r24	; 0x04

	}while (Copy_u8Value != 0);
    2c7c:	89 85       	ldd	r24, Y+9	; 0x09
    2c7e:	88 23       	and	r24, r24
    2c80:	11 f7       	brne	.-60     	; 0x2c46 <itoa+0x22>

	Loc_u8ReverseCounter = Loc_u8NumLoopIdx-1 ;
    2c82:	8c 81       	ldd	r24, Y+4	; 0x04
    2c84:	81 50       	subi	r24, 0x01	; 1
    2c86:	8a 83       	std	Y+2, r24	; 0x02

	for (Loc_u8Counter = 0 ; Loc_u8Counter < Loc_u8NumLoopIdx ; Loc_u8Counter++){
    2c88:	19 82       	std	Y+1, r1	; 0x01
    2c8a:	1a c0       	rjmp	.+52     	; 0x2cc0 <itoa+0x9c>

		Copy_pu8Arr[Loc_u8Counter] = Loc_u8ReverseArr[Loc_u8ReverseCounter] ;
    2c8c:	89 81       	ldd	r24, Y+1	; 0x01
    2c8e:	28 2f       	mov	r18, r24
    2c90:	30 e0       	ldi	r19, 0x00	; 0
    2c92:	8a 85       	ldd	r24, Y+10	; 0x0a
    2c94:	9b 85       	ldd	r25, Y+11	; 0x0b
    2c96:	dc 01       	movw	r26, r24
    2c98:	a2 0f       	add	r26, r18
    2c9a:	b3 1f       	adc	r27, r19
    2c9c:	8a 81       	ldd	r24, Y+2	; 0x02
    2c9e:	28 2f       	mov	r18, r24
    2ca0:	33 27       	eor	r19, r19
    2ca2:	27 fd       	sbrc	r18, 7
    2ca4:	30 95       	com	r19
    2ca6:	ce 01       	movw	r24, r28
    2ca8:	05 96       	adiw	r24, 0x05	; 5
    2caa:	fc 01       	movw	r30, r24
    2cac:	e2 0f       	add	r30, r18
    2cae:	f3 1f       	adc	r31, r19
    2cb0:	80 81       	ld	r24, Z
    2cb2:	8c 93       	st	X, r24
		Loc_u8ReverseCounter-- ;
    2cb4:	8a 81       	ldd	r24, Y+2	; 0x02
    2cb6:	81 50       	subi	r24, 0x01	; 1
    2cb8:	8a 83       	std	Y+2, r24	; 0x02

	}while (Copy_u8Value != 0);

	Loc_u8ReverseCounter = Loc_u8NumLoopIdx-1 ;

	for (Loc_u8Counter = 0 ; Loc_u8Counter < Loc_u8NumLoopIdx ; Loc_u8Counter++){
    2cba:	89 81       	ldd	r24, Y+1	; 0x01
    2cbc:	8f 5f       	subi	r24, 0xFF	; 255
    2cbe:	89 83       	std	Y+1, r24	; 0x01
    2cc0:	99 81       	ldd	r25, Y+1	; 0x01
    2cc2:	8c 81       	ldd	r24, Y+4	; 0x04
    2cc4:	98 17       	cp	r25, r24
    2cc6:	10 f3       	brcs	.-60     	; 0x2c8c <itoa+0x68>

		Copy_pu8Arr[Loc_u8Counter] = Loc_u8ReverseArr[Loc_u8ReverseCounter] ;
		Loc_u8ReverseCounter-- ;
	}

	Copy_pu8Arr[Loc_u8Counter] = '\0';
    2cc8:	89 81       	ldd	r24, Y+1	; 0x01
    2cca:	28 2f       	mov	r18, r24
    2ccc:	30 e0       	ldi	r19, 0x00	; 0
    2cce:	8a 85       	ldd	r24, Y+10	; 0x0a
    2cd0:	9b 85       	ldd	r25, Y+11	; 0x0b
    2cd2:	fc 01       	movw	r30, r24
    2cd4:	e2 0f       	add	r30, r18
    2cd6:	f3 1f       	adc	r31, r19
    2cd8:	10 82       	st	Z, r1
}
    2cda:	2b 96       	adiw	r28, 0x0b	; 11
    2cdc:	0f b6       	in	r0, 0x3f	; 63
    2cde:	f8 94       	cli
    2ce0:	de bf       	out	0x3e, r29	; 62
    2ce2:	0f be       	out	0x3f, r0	; 63
    2ce4:	cd bf       	out	0x3d, r28	; 61
    2ce6:	cf 91       	pop	r28
    2ce8:	df 91       	pop	r29
    2cea:	08 95       	ret

00002cec <__udivmodqi4>:
    2cec:	99 1b       	sub	r25, r25
    2cee:	79 e0       	ldi	r23, 0x09	; 9
    2cf0:	04 c0       	rjmp	.+8      	; 0x2cfa <__udivmodqi4_ep>

00002cf2 <__udivmodqi4_loop>:
    2cf2:	99 1f       	adc	r25, r25
    2cf4:	96 17       	cp	r25, r22
    2cf6:	08 f0       	brcs	.+2      	; 0x2cfa <__udivmodqi4_ep>
    2cf8:	96 1b       	sub	r25, r22

00002cfa <__udivmodqi4_ep>:
    2cfa:	88 1f       	adc	r24, r24
    2cfc:	7a 95       	dec	r23
    2cfe:	c9 f7       	brne	.-14     	; 0x2cf2 <__udivmodqi4_loop>
    2d00:	80 95       	com	r24
    2d02:	08 95       	ret

00002d04 <__divmodhi4>:
    2d04:	97 fb       	bst	r25, 7
    2d06:	09 2e       	mov	r0, r25
    2d08:	07 26       	eor	r0, r23
    2d0a:	0a d0       	rcall	.+20     	; 0x2d20 <__divmodhi4_neg1>
    2d0c:	77 fd       	sbrc	r23, 7
    2d0e:	04 d0       	rcall	.+8      	; 0x2d18 <__divmodhi4_neg2>
    2d10:	0c d0       	rcall	.+24     	; 0x2d2a <__udivmodhi4>
    2d12:	06 d0       	rcall	.+12     	; 0x2d20 <__divmodhi4_neg1>
    2d14:	00 20       	and	r0, r0
    2d16:	1a f4       	brpl	.+6      	; 0x2d1e <__divmodhi4_exit>

00002d18 <__divmodhi4_neg2>:
    2d18:	70 95       	com	r23
    2d1a:	61 95       	neg	r22
    2d1c:	7f 4f       	sbci	r23, 0xFF	; 255

00002d1e <__divmodhi4_exit>:
    2d1e:	08 95       	ret

00002d20 <__divmodhi4_neg1>:
    2d20:	f6 f7       	brtc	.-4      	; 0x2d1e <__divmodhi4_exit>
    2d22:	90 95       	com	r25
    2d24:	81 95       	neg	r24
    2d26:	9f 4f       	sbci	r25, 0xFF	; 255
    2d28:	08 95       	ret

00002d2a <__udivmodhi4>:
    2d2a:	aa 1b       	sub	r26, r26
    2d2c:	bb 1b       	sub	r27, r27
    2d2e:	51 e1       	ldi	r21, 0x11	; 17
    2d30:	07 c0       	rjmp	.+14     	; 0x2d40 <__udivmodhi4_ep>

00002d32 <__udivmodhi4_loop>:
    2d32:	aa 1f       	adc	r26, r26
    2d34:	bb 1f       	adc	r27, r27
    2d36:	a6 17       	cp	r26, r22
    2d38:	b7 07       	cpc	r27, r23
    2d3a:	10 f0       	brcs	.+4      	; 0x2d40 <__udivmodhi4_ep>
    2d3c:	a6 1b       	sub	r26, r22
    2d3e:	b7 0b       	sbc	r27, r23

00002d40 <__udivmodhi4_ep>:
    2d40:	88 1f       	adc	r24, r24
    2d42:	99 1f       	adc	r25, r25
    2d44:	5a 95       	dec	r21
    2d46:	a9 f7       	brne	.-22     	; 0x2d32 <__udivmodhi4_loop>
    2d48:	80 95       	com	r24
    2d4a:	90 95       	com	r25
    2d4c:	bc 01       	movw	r22, r24
    2d4e:	cd 01       	movw	r24, r26
    2d50:	08 95       	ret

00002d52 <_exit>:
    2d52:	f8 94       	cli

00002d54 <__stop_program>:
    2d54:	ff cf       	rjmp	.-2      	; 0x2d54 <__stop_program>
